Certificate:
    Data:
        Version: 3 (0x2)
        Serial Number: 2 (0x2)
        Signature Algorithm: sha256WithRSAEncryption
        Issuer: CN=Intermediate Certificate Authority, C=AU/emailAddress=support@security.com, O=Security Organization, ST=New South Wales, OU=Certificate Authority
        Validity
            Not Before: Jan 15 03:06:21 2025 GMT
            Not After : Jan 15 03:06:21 2027 GMT
        Subject: CN=vault_agent, C=AU/emailAddress=support@crazy.com, O=Crazy Org, ST=New South Wales, OU=Development
        Subject Public Key Info:
            Public Key Algorithm: rsaEncryption
                Public-Key: (4096 bit)
                Modulus:
                    00:94:0b:19:7b:9a:da:68:d1:34:95:3b:23:c0:33:
                    28:dd:e1:2d:eb:b2:58:1e:8a:66:17:c7:c0:a7:96:
                    ba:74:f5:c8:ac:96:1a:74:61:ad:5a:81:10:3b:52:
                    44:a4:57:b6:da:a3:41:f9:4b:66:02:0b:bb:93:a4:
                    cf:46:b5:d1:ed:a0:b9:eb:a2:82:59:04:11:09:bb:
                    63:af:72:13:82:97:71:15:67:99:89:60:ab:70:43:
                    6f:af:bb:ce:01:cc:0a:cf:b6:4e:e3:a7:c9:41:86:
                    41:63:b6:90:3e:47:48:9a:ee:bd:53:e7:13:f3:8f:
                    47:a3:7e:bd:43:99:94:28:63:7c:c4:ce:b3:2b:64:
                    ce:54:44:e6:c9:62:85:54:10:71:22:f3:c7:a6:43:
                    23:af:0d:fc:e1:04:fd:fd:11:ac:16:4d:82:a6:48:
                    f0:be:a9:d3:63:60:ca:63:f7:09:c3:b6:e1:56:5c:
                    bc:b9:d9:69:3b:a0:14:31:df:7f:df:e3:2a:cd:a9:
                    b0:f1:09:a0:3a:77:59:27:94:1c:4d:10:bb:62:6b:
                    6e:a8:01:2c:1a:39:4e:c8:93:5f:fe:01:dc:b2:18:
                    21:86:e2:16:30:c1:99:3a:46:de:af:a3:00:68:25:
                    0a:d9:e9:d8:d2:6b:e8:a9:a1:25:5f:5a:10:61:b5:
                    a4:5c:2c:0f:18:c7:35:b2:67:97:89:50:5c:cf:af:
                    c9:ef:04:07:d4:54:7f:89:44:2c:e1:3c:c2:ff:30:
                    fd:6b:f2:a9:8e:cf:5e:a1:ec:27:b5:27:04:e3:7f:
                    c0:f3:3f:8c:0e:ed:93:58:54:ad:db:1b:84:39:29:
                    3e:0f:78:a0:0b:fc:f9:c6:ad:13:33:29:ec:8e:0e:
                    32:68:7b:17:49:6c:09:9c:c0:1f:60:18:6e:e8:a5:
                    91:09:40:77:43:91:f8:16:9f:6a:4f:8f:38:8a:38:
                    6e:d3:27:81:9f:5b:ef:3d:b2:9e:52:6d:87:7f:42:
                    96:6f:09:fd:43:91:13:80:b0:54:ab:6e:0c:60:e9:
                    8d:3c:c9:45:1b:ac:15:08:4c:b0:52:f1:e4:67:30:
                    1d:4f:56:46:43:77:71:1f:53:55:5a:9c:a8:cb:2c:
                    68:93:1a:27:13:67:3c:aa:5f:da:e1:ff:70:ad:57:
                    3d:ea:44:d4:17:aa:14:71:80:c9:70:28:d6:05:6f:
                    07:96:44:f9:cb:17:ea:8c:42:cf:03:22:4d:7a:89:
                    e0:50:ae:20:22:2e:39:d6:5c:a2:8e:c5:3b:78:ac:
                    a6:f3:28:8e:53:54:84:95:ac:0c:9b:18:a3:d3:62:
                    00:66:97:6f:8c:41:e5:f8:a9:25:e8:b0:b0:b5:6b:
                    e9:6d:65
                Exponent: 65537 (0x10001)
        X509v3 extensions:
            X509v3 Basic Constraints: 
                CA:FALSE
            X509v3 Key Usage: 
                Digital Signature, Key Encipherment
            X509v3 Extended Key Usage: 
                TLS Web Server Authentication, TLS Web Client Authentication
            X509v3 Subject Key Identifier: 
                46:8B:19:28:42:D8:35:65:B7:63:B1:24:AD:7B:52:7B:EB:D5:A2:93
            X509v3 Authority Key Identifier: 
                4F:E8:04:6A:02:21:43:21:29:E8:F2:38:80:DC:B9:45:A2:64:80:5F
            X509v3 Subject Alternative Name: 
                DNS:localhost, DNS:vault_agent, IP Address:127.0.0.1
    Signature Algorithm: sha256WithRSAEncryption
    Signature Value:
        44:71:3b:62:ce:91:e7:85:41:cb:08:f0:57:32:29:4e:6b:69:
        b9:45:30:3a:65:c8:2c:84:ca:52:69:b1:58:c6:c7:e5:ec:ff:
        45:60:c7:7f:32:85:44:28:7e:1e:11:a9:b6:bc:a1:c6:a4:f0:
        40:fd:1c:66:66:e7:75:f3:e8:78:26:e6:1e:12:a6:25:90:d3:
        42:dc:5f:69:1f:69:9e:3f:74:6f:7a:27:0a:e1:95:02:7a:8c:
        93:2c:70:08:06:bb:08:af:a4:83:6c:12:fa:bc:86:82:12:64:
        4d:b9:80:ed:0f:bc:38:8b:3b:ff:00:49:01:cf:9b:4e:76:a3:
        8b:b3:df:a3:b2:17:01:7e:d4:54:1c:66:11:f5:97:ef:0f:f7:
        86:5a:3e:22:f9:45:d6:12:15:34:e1:95:d5:13:5c:61:70:ab:
        15:6a:4b:66:c1:5e:6e:ce:67:4e:9e:e0:99:d5:af:42:35:17:
        18:d7:84:d0:a9:2c:a0:bd:0f:d6:1b:3d:e3:6d:45:26:d1:c8:
        d8:b8:f9:f7:1e:e8:d0:90:7c:e9:13:45:0d:18:ad:56:ce:ec:
        dc:7c:fc:95:71:d7:dc:9a:8b:dc:d1:24:2d:18:02:0e:42:84:
        b0:2e:75:7d:59:8e:e9:9b:ae:e4:78:e3:ad:21:7a:8d:93:b5:
        40:f8:38:59:07:59:e5:dc:b5:a9:ba:71:7d:86:5c:b2:57:39:
        af:c4:66:24:bb:c5:20:57:18:c9:c4:23:09:d8:59:32:f3:34:
        60:7f:83:0b:a6:7d:d4:54:48:15:1e:a6:d2:c1:5c:b4:64:29:
        56:1e:83:84:da:b4:54:b8:6d:30:27:d4:10:ca:b5:f7:01:a2:
        a9:e5:7d:59:73:87:f0:e8:cf:d8:d8:f6:99:27:b4:46:a9:58:
        45:fa:3b:30:d0:76:d8:d7:fd:48:bb:b2:6b:36:1f:28:5d:e5:
        c9:35:07:4e:91:2d:01:f5:ba:cb:02:23:77:39:b0:cc:56:11:
        0e:9f:c9:48:87:4d:02:ea:0a:83:90:c9:31:58:c2:c4:e5:cb:
        6e:e8:a8:42:47:66:0c:ea:77:3a:80:1d:8c:92:1f:dc:77:26:
        f2:00:87:37:63:01:36:a1:f6:56:25:8b:f3:9a:0c:7e:7a:48:
        f0:81:dd:79:0f:c8:9d:96:5c:ae:96:b9:1a:23:f5:fe:a0:24:
        e0:88:37:a1:5b:0c:0e:c7:4b:86:06:4d:7c:b4:94:be:ba:6b:
        6b:83:b6:9c:be:b8:a2:48:96:9b:5a:30:e5:ca:6d:c4:36:58:
        6b:7a:d6:62:17:97:a7:2e:ce:12:25:06:c7:c3:51:b9:41:43:
        79:de:5f:bd:cb:f8:51:f9
-----BEGIN CERTIFICATE-----
MIIGYzCCBEugAwIBAgIBAjANBgkqhkiG9w0BAQsFADCBuTErMCkGA1UEAwwiSW50
ZXJtZWRpYXRlIENlcnRpZmljYXRlIEF1dGhvcml0eTELMAkGA1UEBhMCQVUxIzAh
BgkqhkiG9w0BCQEWFHN1cHBvcnRAc2VjdXJpdHkuY29tMR4wHAYDVQQKDBVTZWN1
cml0eSBPcmdhbml6YXRpb24xGDAWBgNVBAgMD05ldyBTb3V0aCBXYWxlczEeMBwG
A1UECwwVQ2VydGlmaWNhdGUgQXV0aG9yaXR5MB4XDTI1MDExNTAzMDYyMVoXDTI3
MDExNTAzMDYyMVowgYkxFDASBgNVBAMMC3ZhdWx0X2FnZW50MQswCQYDVQQGEwJB
VTEgMB4GCSqGSIb3DQEJARYRc3VwcG9ydEBjcmF6eS5jb20xEjAQBgNVBAoMCUNy
YXp5IE9yZzEYMBYGA1UECAwPTmV3IFNvdXRoIFdhbGVzMRQwEgYDVQQLDAtEZXZl
bG9wbWVudDCCAiIwDQYJKoZIhvcNAQEBBQADggIPADCCAgoCggIBAJQLGXua2mjR
NJU7I8AzKN3hLeuyWB6KZhfHwKeWunT1yKyWGnRhrVqBEDtSRKRXttqjQflLZgIL
u5Okz0a10e2gueuiglkEEQm7Y69yE4KXcRVnmYlgq3BDb6+7zgHMCs+2TuOnyUGG
QWO2kD5HSJruvVPnE/OPR6N+vUOZlChjfMTOsytkzlRE5slihVQQcSLzx6ZDI68N
/OEE/f0RrBZNgqZI8L6p02NgymP3CcO24VZcvLnZaTugFDHff9/jKs2psPEJoDp3
WSeUHE0Qu2JrbqgBLBo5TsiTX/4B3LIYIYbiFjDBmTpG3q+jAGglCtnp2NJr6Kmh
JV9aEGG1pFwsDxjHNbJnl4lQXM+vye8EB9RUf4lELOE8wv8w/WvyqY7PXqHsJ7Un
BON/wPM/jA7tk1hUrdsbhDkpPg94oAv8+catEzMp7I4OMmh7F0lsCZzAH2AYbuil
kQlAd0OR+Bafak+POIo4btMngZ9b7z2ynlJth39Clm8J/UORE4CwVKtuDGDpjTzJ
RRusFQhMsFLx5GcwHU9WRkN3cR9TVVqcqMssaJMaJxNnPKpf2uH/cK1XPepE1Beq
FHGAyXAo1gVvB5ZE+csX6oxCzwMiTXqJ4FCuICIuOdZcoo7FO3ispvMojlNUhJWs
DJsYo9NiAGaXb4xB5fipJeiwsLVr6W1lAgMBAAGjgaMwgaAwCQYDVR0TBAIwADAL
BgNVHQ8EBAMCBaAwHQYDVR0lBBYwFAYIKwYBBQUHAwEGCCsGAQUFBwMCMB0GA1Ud
DgQWBBRGixkoQtg1ZbdjsSSte1J769WikzAfBgNVHSMEGDAWgBRP6ARqAiFDISno
8jiA3LlFomSAXzAnBgNVHREEIDAegglsb2NhbGhvc3SCC3ZhdWx0X2FnZW50hwR/
AAABMA0GCSqGSIb3DQEBCwUAA4ICAQBEcTtizpHnhUHLCPBXMilOa2m5RTA6Zcgs
hMpSabFYxsfl7P9FYMd/MoVEKH4eEam2vKHGpPBA/RxmZud18+h4JuYeEqYlkNNC
3F9pH2meP3RveicK4ZUCeoyTLHAIBrsIr6SDbBL6vIaCEmRNuYDtD7w4izv/AEkB
z5tOdqOLs9+jshcBftRUHGYR9ZfvD/eGWj4i+UXWEhU04ZXVE1xhcKsVaktmwV5u
zmdOnuCZ1a9CNRcY14TQqSygvQ/WGz3jbUUm0cjYuPn3HujQkHzpE0UNGK1Wzuzc
fPyVcdfcmovc0SQtGAIOQoSwLnV9WY7pm67keOOtIXqNk7VA+DhZB1nl3LWpunF9
hlyyVzmvxGYku8UgVxjJxCMJ2Fky8zRgf4MLpn3UVEgVHqbSwVy0ZClWHoOE2rRU
uG0wJ9QQyrX3AaKp5X1Zc4fw6M/Y2PaZJ7RGqVhF+jsw0HbY1/1Iu7JrNh8oXeXJ
NQdOkS0B9brLAiN3ObDMVhEOn8lIh00C6gqDkMkxWMLE5ctu6KhCR2YM6nc6gB2M
kh/cdybyAIc3YwE2ofZWJYvzmgx+ekjwgd15D8idllyulrkaI/X+oCTgiDehWwwO
x0uGBk18tJS+umtrg7acvriiSJabWjDlym3ENlhretZiF5enLs4SJQbHw1G5QUN5
3l+9y/hR+Q==
-----END CERTIFICATE-----
