Certificate:
    Data:
        Version: 3 (0x2)
        Serial Number: 2 (0x2)
        Signature Algorithm: sha256WithRSAEncryption
        Issuer: CN=Intermediate Certificate Authority, C=AU/emailAddress=support@security.com, O=Security Organization, ST=New South Wales, OU=Certificate Authority
        Validity
            Not Before: Jan 14 00:09:20 2025 GMT
            Not After : Jan 14 00:09:20 2027 GMT
        Subject: CN=vault_agent, C=AU/emailAddress=support@crazy.com, O=Crazy Org, ST=New South Wales, OU=Development
        Subject Public Key Info:
            Public Key Algorithm: rsaEncryption
                Public-Key: (4096 bit)
                Modulus:
                    00:ad:6c:bc:e7:f8:2f:8e:7c:78:c4:41:f0:55:55:
                    45:20:49:a8:57:41:06:67:eb:a2:b6:8f:79:b8:a8:
                    28:ab:f3:dc:85:11:d6:c5:70:ec:b5:ca:ff:d7:9c:
                    df:88:da:07:43:52:72:eb:5b:71:04:31:cd:53:0b:
                    fd:39:32:a9:0d:bc:a2:21:0a:1a:36:88:9d:e6:4a:
                    03:a7:71:8b:c6:6f:aa:9e:98:16:72:6f:e0:53:a7:
                    f7:44:17:e2:df:1a:db:8e:68:cc:87:16:96:da:b5:
                    e5:d1:f2:04:21:f8:81:6d:80:8c:96:1c:2f:87:0c:
                    d0:ff:cb:3e:b9:ae:ff:df:c5:59:bd:33:58:9a:12:
                    f2:fb:37:b2:d0:c1:2a:72:3f:68:b4:ef:ea:5d:af:
                    4b:20:f7:26:8e:cd:a8:63:80:c9:e8:4a:9d:72:73:
                    9e:27:0d:71:f9:62:f0:2b:5c:54:fc:5b:4b:e7:19:
                    8c:91:5a:3b:0b:5a:fe:0a:16:6e:74:a1:4a:bd:1a:
                    a2:35:d9:93:42:d8:d2:15:a0:ce:81:5e:ac:8c:86:
                    2a:c9:e6:99:c9:40:ae:96:5b:00:b7:aa:92:81:e7:
                    a5:45:ef:6d:1c:2e:d7:1e:90:b2:72:d9:24:f4:a9:
                    d7:eb:14:e0:ad:69:0f:a8:d1:ae:6b:ed:d6:1d:a2:
                    9f:17:d5:fb:4d:c7:3b:7f:0e:71:2d:42:cd:2f:ca:
                    81:78:17:03:7f:39:36:6b:89:10:a8:e6:15:a0:ff:
                    cf:04:5d:c9:66:ec:33:f3:01:88:04:c9:31:ae:30:
                    99:1f:48:28:38:ab:a4:bb:e4:01:e1:11:a1:49:9a:
                    5a:f4:e1:5a:e6:ab:75:92:9c:8b:9a:2d:28:99:ee:
                    83:55:31:c9:ad:4f:67:5f:6b:10:8a:bf:af:fb:9c:
                    e9:6f:97:59:fb:e1:5b:e6:ea:e8:05:76:90:c5:8d:
                    76:f4:f2:b1:af:1e:06:7b:1a:e7:2e:4d:48:81:d1:
                    fb:36:d2:78:f9:c3:13:f1:c4:5c:93:1b:c5:03:20:
                    43:16:5d:68:9d:cd:63:ff:a3:d5:cb:ec:18:30:a3:
                    90:c3:d0:97:99:cb:41:83:2a:00:ca:90:df:78:fa:
                    f3:89:75:f8:20:13:a8:90:4a:de:a5:1e:e8:fd:99:
                    ea:bc:b5:80:5b:f6:f1:d4:0b:27:6a:18:d5:14:3f:
                    56:f1:52:ee:97:73:11:a0:69:6e:18:cc:f0:0d:24:
                    96:a1:e6:e4:dc:c4:85:23:4d:a0:d5:7b:11:42:99:
                    13:95:94:8d:3b:a5:00:9d:bf:af:53:2d:60:0e:a4:
                    4d:01:d8:dc:68:e7:fa:58:9a:cc:29:7a:c4:e7:8a:
                    88:73:3b
                Exponent: 65537 (0x10001)
        X509v3 extensions:
            X509v3 Basic Constraints: 
                CA:FALSE
            X509v3 Key Usage: 
                Digital Signature, Key Encipherment
            X509v3 Extended Key Usage: 
                TLS Web Server Authentication, TLS Web Client Authentication
            X509v3 Subject Key Identifier: 
                0E:A5:86:AF:C1:47:8B:40:29:90:ED:63:99:12:C6:E0:E5:B5:46:30
            X509v3 Authority Key Identifier: 
                4A:5B:FA:1E:0D:84:04:B4:C7:7E:23:42:FF:31:D7:A2:4F:CE:CD:11
            X509v3 Subject Alternative Name: 
                DNS:localhost, DNS:vault_agent, IP Address:127.0.0.1
    Signature Algorithm: sha256WithRSAEncryption
    Signature Value:
        8b:b4:e7:46:75:84:0f:18:01:6a:31:b3:6d:f3:39:cc:c5:4a:
        c1:27:ab:60:0c:50:69:71:ec:0a:ec:94:7e:90:0a:7f:95:a2:
        fd:81:d4:93:13:c7:47:77:f3:c4:49:04:0c:92:34:76:c1:5c:
        27:f9:9b:0d:11:a8:a6:81:d7:d3:81:a0:d8:42:95:10:88:49:
        4f:a6:c6:1b:59:30:03:1d:70:bd:6a:ce:f4:8c:c2:85:07:16:
        e4:2e:c9:19:65:a9:5b:4c:ce:1a:74:e2:dc:72:b9:e9:87:d3:
        1e:41:ce:d7:f3:49:89:4c:eb:5e:82:f5:a0:0f:b0:32:31:a4:
        5d:7b:36:14:b2:e2:0c:83:69:ed:e6:6b:f5:f9:6b:31:a7:78:
        2f:2d:9e:1d:66:31:46:e7:1d:42:7c:53:79:e2:69:35:42:41:
        f6:bf:cd:44:2f:c3:99:a9:91:c6:2d:fa:05:3a:1d:e5:6e:32:
        f3:89:9e:d1:bf:99:dd:6a:da:0f:38:f6:ba:f1:8a:fc:8b:53:
        33:f9:7c:05:66:fb:68:b7:81:4f:ee:7e:0a:37:5e:62:41:b8:
        02:12:71:a4:fc:cf:b3:03:41:96:32:e8:c3:a8:d8:fd:1f:e4:
        61:70:2f:83:dc:8a:92:ce:ae:0e:a1:47:fd:ac:19:7e:94:7c:
        64:e6:15:92:52:55:52:58:06:3b:3d:d6:a0:85:36:25:46:5f:
        a6:dc:54:c6:88:27:ac:d7:97:44:ae:e5:ae:94:75:ea:f6:58:
        e1:93:e0:93:1d:be:48:87:b3:38:96:f6:e2:bf:15:c4:0e:f8:
        6e:54:41:f1:6d:1c:50:c3:62:cb:26:ba:2f:37:c0:2e:c3:76:
        9a:3f:32:72:e5:ec:6c:88:6c:58:9a:e0:77:cb:dd:1c:25:42:
        f9:bb:56:48:12:84:d2:17:d9:bd:d1:f5:01:10:32:06:b3:4e:
        da:da:87:ad:1c:c3:11:48:14:51:68:73:af:57:62:de:50:c0:
        80:3b:04:08:b5:52:e5:91:2f:32:07:1f:b5:a3:f7:cf:73:61:
        6c:17:e1:aa:36:64:70:c7:be:73:c4:32:c9:88:f9:53:5d:d3:
        2c:9b:f5:ea:fb:cc:74:92:04:2e:c6:fe:be:7a:f8:25:f0:e7:
        a9:a2:35:10:1f:4c:c6:02:1e:bf:39:55:37:08:1f:61:94:fb:
        35:f9:fb:08:ef:e5:bc:41:8b:9a:a8:35:cc:67:22:09:e5:e7:
        c4:8c:83:0f:9e:4a:57:d9:de:bd:43:7e:c5:37:f1:ec:4b:96:
        47:24:8e:c2:7d:77:c8:40:5a:a7:1a:ff:a3:60:a4:8f:36:fe:
        50:1b:a5:c5:bb:96:b5:09
-----BEGIN CERTIFICATE-----
MIIGYzCCBEugAwIBAgIBAjANBgkqhkiG9w0BAQsFADCBuTErMCkGA1UEAwwiSW50
ZXJtZWRpYXRlIENlcnRpZmljYXRlIEF1dGhvcml0eTELMAkGA1UEBhMCQVUxIzAh
BgkqhkiG9w0BCQEWFHN1cHBvcnRAc2VjdXJpdHkuY29tMR4wHAYDVQQKDBVTZWN1
cml0eSBPcmdhbml6YXRpb24xGDAWBgNVBAgMD05ldyBTb3V0aCBXYWxlczEeMBwG
A1UECwwVQ2VydGlmaWNhdGUgQXV0aG9yaXR5MB4XDTI1MDExNDAwMDkyMFoXDTI3
MDExNDAwMDkyMFowgYkxFDASBgNVBAMMC3ZhdWx0X2FnZW50MQswCQYDVQQGEwJB
VTEgMB4GCSqGSIb3DQEJARYRc3VwcG9ydEBjcmF6eS5jb20xEjAQBgNVBAoMCUNy
YXp5IE9yZzEYMBYGA1UECAwPTmV3IFNvdXRoIFdhbGVzMRQwEgYDVQQLDAtEZXZl
bG9wbWVudDCCAiIwDQYJKoZIhvcNAQEBBQADggIPADCCAgoCggIBAK1svOf4L458
eMRB8FVVRSBJqFdBBmfroraPebioKKvz3IUR1sVw7LXK/9ec34jaB0NScutbcQQx
zVML/TkyqQ28oiEKGjaIneZKA6dxi8Zvqp6YFnJv4FOn90QX4t8a245ozIcWltq1
5dHyBCH4gW2AjJYcL4cM0P/LPrmu/9/FWb0zWJoS8vs3stDBKnI/aLTv6l2vSyD3
Jo7NqGOAyehKnXJznicNcfli8CtcVPxbS+cZjJFaOwta/goWbnShSr0aojXZk0LY
0hWgzoFerIyGKsnmmclArpZbALeqkoHnpUXvbRwu1x6QsnLZJPSp1+sU4K1pD6jR
rmvt1h2inxfV+03HO38OcS1CzS/KgXgXA385NmuJEKjmFaD/zwRdyWbsM/MBiATJ
Ma4wmR9IKDirpLvkAeERoUmaWvThWuardZKci5otKJnug1Uxya1PZ19rEIq/r/uc
6W+XWfvhW+bq6AV2kMWNdvTysa8eBnsa5y5NSIHR+zbSePnDE/HEXJMbxQMgQxZd
aJ3NY/+j1cvsGDCjkMPQl5nLQYMqAMqQ33j684l1+CATqJBK3qUe6P2Z6ry1gFv2
8dQLJ2oY1RQ/VvFS7pdzEaBpbhjM8A0klqHm5NzEhSNNoNV7EUKZE5WUjTulAJ2/
r1MtYA6kTQHY3Gjn+liazCl6xOeKiHM7AgMBAAGjgaMwgaAwCQYDVR0TBAIwADAL
BgNVHQ8EBAMCBaAwHQYDVR0lBBYwFAYIKwYBBQUHAwEGCCsGAQUFBwMCMB0GA1Ud
DgQWBBQOpYavwUeLQCmQ7WOZEsbg5bVGMDAfBgNVHSMEGDAWgBRKW/oeDYQEtMd+
I0L/MdeiT87NETAnBgNVHREEIDAegglsb2NhbGhvc3SCC3ZhdWx0X2FnZW50hwR/
AAABMA0GCSqGSIb3DQEBCwUAA4ICAQCLtOdGdYQPGAFqMbNt8znMxUrBJ6tgDFBp
cewK7JR+kAp/laL9gdSTE8dHd/PESQQMkjR2wVwn+ZsNEaimgdfTgaDYQpUQiElP
psYbWTADHXC9as70jMKFBxbkLskZZalbTM4adOLccrnph9MeQc7X80mJTOtegvWg
D7AyMaRdezYUsuIMg2nt5mv1+Wsxp3gvLZ4dZjFG5x1CfFN54mk1QkH2v81EL8OZ
qZHGLfoFOh3lbjLziZ7Rv5ndatoPOPa68Yr8i1Mz+XwFZvtot4FP7n4KN15iQbgC
EnGk/M+zA0GWMujDqNj9H+RhcC+D3IqSzq4OoUf9rBl+lHxk5hWSUlVSWAY7Pdag
hTYlRl+m3FTGiCes15dEruWulHXq9ljhk+CTHb5Ih7M4lvbivxXEDvhuVEHxbRxQ
w2LLJrovN8Auw3aaPzJy5exsiGxYmuB3y90cJUL5u1ZIEoTSF9m90fUBEDIGs07a
2oetHMMRSBRRaHOvV2LeUMCAOwQItVLlkS8yBx+1o/fPc2FsF+GqNmRwx75zxDLJ
iPlTXdMsm/Xq+8x0kgQuxv6+evgl8OepojUQH0zGAh6/OVU3CB9hlPs1+fsI7+W8
QYuaqDXMZyIJ5efEjIMPnkpX2d69Q37FN/HsS5ZHJI7CfXfIQFqnGv+jYKSPNv5Q
G6XFu5a1CQ==
-----END CERTIFICATE-----
Certificate:
    Data:
        Version: 3 (0x2)
        Serial Number: 1 (0x1)
        Signature Algorithm: sha256WithRSAEncryption
        Issuer: CN=Root Certificate Authority, C=AU/emailAddress=support@security.com, ST=New South Wales, O=Security Organization, OU=Certificate Authority
        Validity
            Not Before: Jan 14 00:09:14 2025 GMT
            Not After : Jan  9 00:09:14 2045 GMT
        Subject: CN=Intermediate Certificate Authority, C=AU/emailAddress=support@security.com, O=Security Organization, ST=New South Wales, OU=Certificate Authority
        Subject Public Key Info:
            Public Key Algorithm: rsaEncryption
                Public-Key: (4096 bit)
                Modulus:
                    00:ae:4f:f7:80:37:38:c8:9e:d7:96:7b:ec:7e:fd:
                    c1:c3:4f:95:dd:7e:7a:e8:1f:9a:59:fb:55:69:c9:
                    08:71:c7:64:07:0c:5c:5c:b1:7d:b4:b2:12:bd:bf:
                    0e:4a:a0:0e:69:a5:1f:7f:ac:74:f1:dc:c6:f9:d7:
                    2d:e2:bb:0e:ef:c8:8a:03:ef:3b:93:a1:f8:33:20:
                    e5:d5:16:c6:fa:1d:2a:7f:f0:6c:c8:a1:9a:d8:29:
                    2e:83:aa:f8:f2:ee:ea:12:c4:ef:05:c8:43:66:15:
                    f1:5e:df:ef:c3:26:18:b1:5d:08:d8:a5:a2:40:bc:
                    93:5d:77:b9:75:ba:6a:6e:f6:8f:e8:fa:78:b1:ae:
                    41:7a:79:bf:fc:4c:e9:4e:a7:63:21:49:e2:16:dd:
                    c9:fe:7e:57:40:df:f2:92:54:a4:47:a3:5a:49:d2:
                    5a:83:74:f7:ea:10:d4:b5:56:26:46:62:6c:20:6b:
                    30:0b:93:8c:4d:09:98:35:59:96:a4:bb:fc:b3:5d:
                    46:a8:40:e5:22:6b:56:e8:4f:21:12:29:48:bc:29:
                    8b:46:a5:d8:c8:0f:d3:00:92:33:cc:68:e0:54:86:
                    ab:c8:fe:70:14:d0:30:c3:2b:e0:68:f3:01:38:9d:
                    7d:3b:f1:ce:5a:a6:58:73:96:54:49:36:fd:3d:81:
                    65:95:8b:ee:e1:dc:94:3f:53:e7:73:25:ba:20:ea:
                    ed:dd:1a:f6:95:25:52:2b:6f:3f:8b:c6:81:bc:77:
                    2b:67:4b:29:1b:f0:ec:e7:4e:8c:82:86:99:77:bf:
                    53:98:04:b7:2c:83:60:d7:92:82:b1:11:49:4f:fe:
                    55:ec:b7:25:75:33:23:74:b3:9d:76:1c:77:b3:78:
                    75:9d:f1:c5:f6:77:d8:a5:71:32:e4:72:fd:15:bc:
                    8a:76:89:0c:e7:87:e6:83:b0:7d:4a:46:a6:52:47:
                    54:ff:34:2b:90:18:cf:68:fe:b1:ab:b6:b5:ca:90:
                    c1:e2:e5:54:8f:e4:33:6b:11:e8:9b:cf:21:9b:c8:
                    36:c4:d9:09:56:fa:b2:10:01:35:78:70:ec:32:1c:
                    18:a8:df:4f:e6:27:b8:3e:ed:56:24:0a:6c:05:59:
                    2b:a7:06:a9:13:b9:d7:ba:15:f1:59:c2:21:dd:7b:
                    3e:9d:09:38:05:47:7c:a2:6e:ad:1f:95:23:c3:54:
                    44:79:16:82:b1:36:2d:03:6b:6a:90:c6:d6:3d:8e:
                    58:b5:d9:81:34:47:9b:4f:32:b7:82:25:7f:c1:20:
                    94:5c:4e:af:c7:25:fc:6a:56:5c:d2:ae:d7:7a:1f:
                    2a:4a:05:69:30:5d:46:7e:d6:37:d7:d2:12:56:ae:
                    9d:fc:9f
                Exponent: 65537 (0x10001)
        X509v3 extensions:
            X509v3 Basic Constraints: critical
                CA:TRUE, pathlen:1
            X509v3 Key Usage: critical
                Certificate Sign, CRL Sign
            Authority Information Access: 
                OCSP - URI:http://ocsp.security.com
            X509v3 CRL Distribution Points: 
                Full Name:
                  URI:http://crl.security.com/root-ca.crl
            X509v3 Subject Key Identifier: 
                4A:5B:FA:1E:0D:84:04:B4:C7:7E:23:42:FF:31:D7:A2:4F:CE:CD:11
            X509v3 Authority Key Identifier: 
                01:05:06:6C:FE:19:83:03:7D:42:6E:06:72:3E:2C:28:DB:38:3C:7D
    Signature Algorithm: sha256WithRSAEncryption
    Signature Value:
        89:6c:e9:f9:b6:85:a1:84:fd:ff:05:f6:12:1b:fb:ef:91:e2:
        4e:80:38:5c:a1:6a:43:a9:d6:48:02:5c:12:a8:dd:95:2d:64:
        0e:3c:f1:4d:0b:03:61:fd:5b:1c:6b:89:7e:c3:8e:d5:e5:55:
        37:ce:15:a3:f7:6b:86:18:88:39:4d:57:a4:7b:b0:58:2f:23:
        03:14:d8:ab:0e:1a:13:c3:cc:6b:ff:8d:8d:fa:ba:5f:e4:e7:
        9a:6a:bb:b1:30:1d:97:f8:95:db:16:df:02:c6:b5:e4:32:bf:
        7a:e3:26:6c:a1:95:74:3b:11:05:7d:95:ea:cb:e2:3a:ab:01:
        d4:0a:4a:8b:7f:2a:39:43:86:ad:c8:35:51:a4:75:92:91:e8:
        f8:9d:16:a7:c4:f4:4c:52:9f:45:aa:4f:24:09:23:c3:92:cd:
        a6:45:56:00:6f:65:eb:6d:fd:ca:23:4f:c3:d9:ec:11:f6:96:
        67:89:68:21:bd:ac:f6:e4:93:6e:bf:44:98:79:04:bf:26:23:
        be:45:a2:12:40:cb:2f:e8:16:fa:1e:72:f8:f1:89:bd:22:e5:
        ad:f3:c7:fd:58:43:e8:07:ea:79:f7:49:33:37:83:b3:80:5f:
        23:d8:81:c8:9f:b4:f9:88:3b:51:cb:dc:80:b1:b9:2e:60:ae:
        de:d3:0d:f6:b7:f9:94:74:34:1a:c9:c7:f9:7a:16:cd:ac:23:
        8b:74:37:0c:a4:a9:7c:e1:90:70:4e:f1:81:7f:88:a9:4a:28:
        e5:01:48:9b:01:2e:c2:c4:6e:dc:e0:17:47:55:21:3e:45:82:
        32:95:02:d1:5f:d2:f2:c2:7b:74:46:8e:5a:5f:2e:48:ed:e5:
        e1:1f:e0:cb:cb:6e:1e:cc:1e:79:d6:00:18:31:98:a9:d3:23:
        a4:78:f8:e8:3c:c7:bd:a1:49:8c:24:b7:f4:74:b9:3b:5e:df:
        5a:0c:59:b4:d3:ed:52:b6:5f:7e:58:84:25:b7:8e:7d:7b:a5:
        a0:04:e5:65:65:ef:4c:75:0f:16:03:b7:ec:e8:e0:e4:23:17:
        00:53:fc:30:ca:c4:a4:80:83:e6:d3:22:d0:67:8c:0d:05:47:
        3c:8c:8f:d2:56:51:3a:43:e8:6b:c2:02:72:bd:ea:6e:f0:8a:
        0b:bc:9c:29:0f:c6:83:1a:d7:84:f5:b9:8c:95:15:f1:9d:c9:
        96:66:96:2a:1e:d2:90:7b:84:8f:7b:13:3d:49:9c:b9:fc:10:
        e4:aa:95:06:39:09:f3:72:6e:11:df:4a:f2:46:12:b7:d7:2b:
        86:b5:60:d6:2c:25:74:02:cf:4b:16:1c:86:c2:ef:5b:e3:60:
        52:04:78:bb:b6:c6:91:aa
-----BEGIN CERTIFICATE-----
MIIGuzCCBKOgAwIBAgIBATANBgkqhkiG9w0BAQsFADCBsTEjMCEGA1UEAwwaUm9v
dCBDZXJ0aWZpY2F0ZSBBdXRob3JpdHkxCzAJBgNVBAYTAkFVMSMwIQYJKoZIhvcN
AQkBFhRzdXBwb3J0QHNlY3VyaXR5LmNvbTEYMBYGA1UECAwPTmV3IFNvdXRoIFdh
bGVzMR4wHAYDVQQKDBVTZWN1cml0eSBPcmdhbml6YXRpb24xHjAcBgNVBAsMFUNl
cnRpZmljYXRlIEF1dGhvcml0eTAeFw0yNTAxMTQwMDA5MTRaFw00NTAxMDkwMDA5
MTRaMIG5MSswKQYDVQQDDCJJbnRlcm1lZGlhdGUgQ2VydGlmaWNhdGUgQXV0aG9y
aXR5MQswCQYDVQQGEwJBVTEjMCEGCSqGSIb3DQEJARYUc3VwcG9ydEBzZWN1cml0
eS5jb20xHjAcBgNVBAoMFVNlY3VyaXR5IE9yZ2FuaXphdGlvbjEYMBYGA1UECAwP
TmV3IFNvdXRoIFdhbGVzMR4wHAYDVQQLDBVDZXJ0aWZpY2F0ZSBBdXRob3JpdHkw
ggIiMA0GCSqGSIb3DQEBAQUAA4ICDwAwggIKAoICAQCuT/eANzjInteWe+x+/cHD
T5XdfnroH5pZ+1VpyQhxx2QHDFxcsX20shK9vw5KoA5ppR9/rHTx3Mb51y3iuw7v
yIoD7zuTofgzIOXVFsb6HSp/8GzIoZrYKS6Dqvjy7uoSxO8FyENmFfFe3+/DJhix
XQjYpaJAvJNdd7l1umpu9o/o+nixrkF6eb/8TOlOp2MhSeIW3cn+fldA3/KSVKRH
o1pJ0lqDdPfqENS1ViZGYmwgazALk4xNCZg1WZaku/yzXUaoQOUia1boTyESKUi8
KYtGpdjID9MAkjPMaOBUhqvI/nAU0DDDK+Bo8wE4nX078c5aplhzllRJNv09gWWV
i+7h3JQ/U+dzJbog6u3dGvaVJVIrbz+LxoG8dytnSykb8OznToyChpl3v1OYBLcs
g2DXkoKxEUlP/lXstyV1MyN0s512HHezeHWd8cX2d9ilcTLkcv0VvIp2iQznh+aD
sH1KRqZSR1T/NCuQGM9o/rGrtrXKkMHi5VSP5DNrEeibzyGbyDbE2QlW+rIQATV4
cOwyHBio30/mJ7g+7VYkCmwFWSunBqkTude6FfFZwiHdez6dCTgFR3yibq0flSPD
VER5FoKxNi0Da2qQxtY9jli12YE0R5tPMreCJX/BIJRcTq/HJfxqVlzSrtd6HypK
BWkwXUZ+1jfX0hJWrp38nwIDAQABo4HTMIHQMBIGA1UdEwEB/wQIMAYBAf8CAQEw
DgYDVR0PAQH/BAQDAgEGMDQGCCsGAQUFBwEBBCgwJjAkBggrBgEFBQcwAYYYaHR0
cDovL29jc3Auc2VjdXJpdHkuY29tMDQGA1UdHwQtMCswKaAnoCWGI2h0dHA6Ly9j
cmwuc2VjdXJpdHkuY29tL3Jvb3QtY2EuY3JsMB0GA1UdDgQWBBRKW/oeDYQEtMd+
I0L/MdeiT87NETAfBgNVHSMEGDAWgBQBBQZs/hmDA31CbgZyPiwo2zg8fTANBgkq
hkiG9w0BAQsFAAOCAgEAiWzp+baFoYT9/wX2Ehv775HiToA4XKFqQ6nWSAJcEqjd
lS1kDjzxTQsDYf1bHGuJfsOO1eVVN84Vo/drhhiIOU1XpHuwWC8jAxTYqw4aE8PM
a/+Njfq6X+Tnmmq7sTAdl/iV2xbfAsa15DK/euMmbKGVdDsRBX2V6sviOqsB1ApK
i38qOUOGrcg1UaR1kpHo+J0Wp8T0TFKfRapPJAkjw5LNpkVWAG9l6239yiNPw9ns
EfaWZ4loIb2s9uSTbr9EmHkEvyYjvkWiEkDLL+gW+h5y+PGJvSLlrfPH/VhD6Afq
efdJMzeDs4BfI9iByJ+0+Yg7UcvcgLG5LmCu3tMN9rf5lHQ0GsnH+XoWzawji3Q3
DKSpfOGQcE7xgX+IqUoo5QFImwEuwsRu3OAXR1UhPkWCMpUC0V/S8sJ7dEaOWl8u
SO3l4R/gy8tuHsweedYAGDGYqdMjpHj46DzHvaFJjCS39HS5O17fWgxZtNPtUrZf
fliEJbeOfXuloATlZWXvTHUPFgO37Ojg5CMXAFP8MMrEpICD5tMi0GeMDQVHPIyP
0lZROkPoa8ICcr3qbvCKC7ycKQ/GgxrXhPW5jJUV8Z3JlmaWKh7SkHuEj3sTPUmc
ufwQ5KqVBjkJ83JuEd9K8kYSt9crhrVg1iwldALPSxYchsLvW+NgUgR4u7bGkao=
-----END CERTIFICATE-----
-----BEGIN CERTIFICATE-----
MIIGpTCCBI2gAwIBAgIUEcYiP+gOaCxM5bB0n3GS8knBXc0wDQYJKoZIhvcNAQEL
BQAwgbExIzAhBgNVBAMMGlJvb3QgQ2VydGlmaWNhdGUgQXV0aG9yaXR5MQswCQYD
VQQGEwJBVTEjMCEGCSqGSIb3DQEJARYUc3VwcG9ydEBzZWN1cml0eS5jb20xGDAW
BgNVBAgMD05ldyBTb3V0aCBXYWxlczEeMBwGA1UECgwVU2VjdXJpdHkgT3JnYW5p
emF0aW9uMR4wHAYDVQQLDBVDZXJ0aWZpY2F0ZSBBdXRob3JpdHkwHhcNMjUwMTE0
MDAwOTExWhcNNDUwMTA5MDAwOTExWjCBsTEjMCEGA1UEAwwaUm9vdCBDZXJ0aWZp
Y2F0ZSBBdXRob3JpdHkxCzAJBgNVBAYTAkFVMSMwIQYJKoZIhvcNAQkBFhRzdXBw
b3J0QHNlY3VyaXR5LmNvbTEYMBYGA1UECAwPTmV3IFNvdXRoIFdhbGVzMR4wHAYD
VQQKDBVTZWN1cml0eSBPcmdhbml6YXRpb24xHjAcBgNVBAsMFUNlcnRpZmljYXRl
IEF1dGhvcml0eTCCAiIwDQYJKoZIhvcNAQEBBQADggIPADCCAgoCggIBAKJUPbks
mfZFutxd5ApaiS4kMjZofiCng81JUR/DW+rT2u547HrNpVAMeg7SJEAA7pDiAlge
+shqYh23JVpppW+GSQGwpivfk3UIq1oZS4ugXk0Cko9tRDIG0OPO0ZgaTKBWIyRW
8WJafLjiI1fz16LTK44RJelZqK7wduZxQ+LuXQ0MtQ85u1Ij2FnuPoa2ZUXS/Nm/
6ntkkMo0HJehoQplo8ryN9/XqKaZFzkHiUNCcoGOcxM8YL0J7wzX+FKBEr7OYgUV
4yFvdlw3LD381T33yqGGB4jLE/KaX2ATEUM9HKbMFbvA4TQUfSzab/q8gyaoEyN6
1QkJ/mbE7KYmthlv7dsa0RWALJYyiylOtQkarCOz7yto2pvYjBdjijtrfz3mnDD8
AetakhcU0g3IJYLoceagBKupCzc6iuU9UCcQNUTqv+19+dn9IovzUf0kKST4+Zq1
i8xsL2AiA02pm6fpVZkrXwf+KjUSy0HDFxbEQbBHYxvmfSBldZalyi9nAvfwi3M5
MdUaQ6/9cUV4D0Lb06WUi0EDJZyOz/UG9B5g65LvKeD29C28+moVRYYfAOl7aAk4
aMjZgZC4pAQzgXJ+OGf+pAJkApCD4nYvDFGkRaqRiZgGIhY+hp1NSGpmYgwoHQem
M1zCH7bcGFMLzDzi3dwA7UV7ijbZ1OTyQr+LAgMBAAGjgbIwga8wEgYDVR0TAQH/
BAgwBgEB/wIBATAOBgNVHQ8BAf8EBAMCAQYwNAYIKwYBBQUHAQEEKDAmMCQGCCsG
AQUFBzABhhhodHRwOi8vb2NzcC5zZWN1cml0eS5jb20wNAYDVR0fBC0wKzApoCeg
JYYjaHR0cDovL2NybC5zZWN1cml0eS5jb20vcm9vdC1jYS5jcmwwHQYDVR0OBBYE
FAEFBmz+GYMDfUJuBnI+LCjbODx9MA0GCSqGSIb3DQEBCwUAA4ICAQBJB2aHQlMe
GhFg1q6ihvR0FF7mQeKO8EDY0CYH1exLUYaLBZVAT39h7PpgwvABPjJm43ez0cWO
DPR3PR9hRJB+xXAA4SGge9KnumuHs+jzkokmChgHtiMQIsBvHBy/8t/W6MMk7gRq
5HoaDLCrvHwY+Lf0Z8RIKFfgG5Njkqs1JQZRCCCY9t87SZHbP1/5sQeJlZGQ05ID
OXcsaX4wM1ZkQ2C1zeyaPeh+7Nk4IM6e+gkC5O2Yd1z29GE54U+ioONTbEkozFyM
1b9aey5rUPY3MNOOVQkoHVZzAl8uwO/lMc5/X7/vHCzjoAr/7iKC066i30LA/Xeg
j70RkrIoD3X8P+9F8FYG6jO3TOS9OmFyS8VqwKFZIKnh+GljtmqqNngyZyb2HmC1
okh5DTPRSVw3dREP/3rEYCI+T8+iTL96hNvjWXz5aHl8LmSXKYXbknsXIdrJztMY
oPqaBMHJRgUOh7mXA1ZFe3Dd8d109AB2lEmNB3CBbAjeslSULni+1DQYxYt7fvCL
Ilmd/lrg7v2omlEitkyNf64ddgaIfRivchHoOtErfTFnCCkl8tKcbunDxxvQZwCj
3X9dPMXJrhgfL5Km3YwlmXMDJfjiLRzDf06I1unH6TeZTQJfOjyMYGP0FLbiWoCZ
rZCnq7uM+5TYj59aAD0EV8KRD0Zx9j7LTw==
-----END CERTIFICATE-----
