Certificate:
    Data:
        Version: 3 (0x2)
        Serial Number: 2 (0x2)
        Signature Algorithm: sha256WithRSAEncryption
        Issuer: CN=My Root Certificate Authority, ST=NSW, C=AU/emailAddress=support@example.com, O=Example Org, OU=Development
        Validity
            Not Before: Jan 10 17:42:04 2025 GMT
            Not After : Jan  9 17:42:04 2030 GMT
        Subject: CN=vault_agent, ST=New South Wales, C=AU/emailAddress=support@crazy.com, O=Crazy Org, OU=Development
        Subject Public Key Info:
            Public Key Algorithm: rsaEncryption
                Public-Key: (4096 bit)
                Modulus:
                    00:a7:11:9e:ec:ca:d0:aa:12:94:6c:f4:24:85:75:
                    ea:4a:e8:a1:19:e7:c6:99:65:11:56:8c:3b:7a:4b:
                    4b:e7:64:51:e4:b4:3c:ec:fa:88:2a:a0:22:94:41:
                    e5:ec:d8:64:7f:17:87:44:46:1f:43:ce:15:75:44:
                    03:d2:cc:80:05:30:24:5f:08:cf:95:f8:d8:bb:62:
                    e2:c8:d2:98:62:7c:73:67:ec:dc:da:d1:cc:07:47:
                    95:dd:14:fc:c2:b4:ca:ec:e4:62:c1:8f:72:19:b7:
                    db:ca:5d:e9:33:fa:80:4c:d3:ad:70:dc:03:50:fa:
                    29:df:a8:8a:10:2e:a8:74:1d:67:0a:62:c8:0c:c7:
                    cc:f3:fc:04:6b:2a:82:c6:07:1b:fe:5d:9f:1b:89:
                    c9:8f:f1:87:a3:5a:7c:a8:d6:16:4f:b9:9b:f5:35:
                    d5:c1:04:81:05:c4:ce:24:b8:41:7f:f1:73:26:a5:
                    17:8b:9c:f0:10:0e:d0:98:4f:c0:45:e4:c9:ad:3d:
                    8c:d9:7a:7f:28:59:f9:01:d1:db:0a:08:bc:21:dd:
                    e1:78:7a:8a:d5:2f:a5:44:18:6b:1a:80:ac:8e:64:
                    5b:08:d1:99:ec:8f:ed:b8:4a:dc:71:16:83:52:d2:
                    1f:41:b2:b8:d1:14:03:c6:c5:a3:f9:7a:c7:00:c6:
                    9e:a1:b9:c0:f1:e7:10:25:4c:81:8c:26:d0:b5:83:
                    96:0f:6b:6a:e8:4e:f2:d7:6b:5c:69:5e:a6:d5:a0:
                    42:02:b4:f9:f9:06:32:f0:2d:9b:33:c1:30:5c:dd:
                    a5:f9:68:d5:4e:09:46:25:7e:13:d1:de:c0:67:2a:
                    93:f2:d4:1b:5e:9f:7f:08:de:cc:44:b7:39:11:10:
                    88:3f:24:2f:f4:b9:e9:a4:76:4c:14:12:bf:a7:49:
                    c3:a7:8a:3f:1c:35:24:d6:e8:de:93:6d:90:29:bf:
                    12:eb:0f:53:9c:45:f1:3d:14:98:9f:24:0f:ab:dd:
                    36:2f:c0:30:67:10:72:91:6f:b9:06:ba:f8:94:ca:
                    e5:15:be:01:f1:ad:5d:29:ae:6c:eb:54:d0:e4:69:
                    f4:78:e9:2d:22:10:72:7b:7c:e9:1b:c6:7d:7d:4d:
                    ec:13:c2:07:3f:40:56:4a:ec:04:ed:cb:80:e7:c4:
                    92:4b:18:eb:d8:97:3c:62:a0:76:30:c9:f7:ed:60:
                    bb:64:d4:fa:2e:18:94:52:45:ec:18:38:b0:aa:3f:
                    a0:7b:f4:9e:74:5d:f3:e6:a0:00:6d:67:1e:c3:78:
                    bb:50:6b:20:1a:72:d5:03:63:f1:cb:01:d9:c6:01:
                    73:cc:9f:60:5b:2c:31:5c:4d:70:d4:5b:99:e3:4e:
                    53:d2:97
                Exponent: 65537 (0x10001)
        X509v3 extensions:
            X509v3 Basic Constraints: 
                CA:FALSE
            X509v3 Key Usage: 
                Digital Signature, Non Repudiation, Key Encipherment
            X509v3 Extended Key Usage: 
                TLS Web Server Authentication, TLS Web Client Authentication
            X509v3 Subject Alternative Name: 
                DNS:localhost, DNS:vault_agent, IP Address:127.0.0.1
            X509v3 Subject Key Identifier: 
                0D:CE:FA:4A:1F:79:F9:25:00:4D:39:D0:03:18:BA:AD:24:F9:DB:11
            X509v3 Authority Key Identifier: 
                99:8C:98:01:5C:FD:D3:0A:91:2A:B8:F7:37:5C:12:D7:A4:6B:09:95
    Signature Algorithm: sha256WithRSAEncryption
    Signature Value:
        58:96:52:8a:55:a1:1c:b2:c9:30:27:08:7c:05:21:88:c4:44:
        5e:5f:4b:17:39:87:f2:e9:12:25:21:83:b8:1b:04:0f:9a:73:
        b0:5f:31:ab:96:4d:d9:a4:e8:07:32:5e:d8:2f:90:b0:fe:c9:
        71:c5:74:aa:70:3d:22:29:52:bf:6c:5a:71:1a:4a:17:09:aa:
        75:62:ff:8e:a6:65:cb:52:05:3e:7f:8b:5d:dc:46:6c:6c:b8:
        d3:e4:b4:ff:e6:49:d7:6a:b7:47:28:7f:8d:ea:63:aa:54:47:
        d6:ce:c1:37:c4:73:8b:1a:7e:de:f4:7e:49:b5:8e:07:f8:1a:
        75:0d:74:37:17:ee:1a:a5:cf:65:82:e3:ff:d4:c7:ec:6e:f7:
        24:fb:4a:7d:bb:a8:3b:d5:a5:ad:a4:fd:0d:19:b4:8a:2e:ec:
        05:ec:65:b4:e8:59:02:31:89:72:9c:3c:54:49:d1:61:80:be:
        64:e4:30:c0:7e:93:6f:90:c5:80:f0:4f:9f:1c:0b:ba:37:73:
        c4:26:3f:d9:1d:c1:d9:bf:41:6d:c2:c7:ca:a2:21:22:77:7b:
        bf:c1:1c:5f:42:3e:82:5f:7f:09:be:9b:60:96:a3:97:9b:ab:
        a8:69:3d:11:65:44:b4:ba:bb:1e:e4:ad:15:2a:a0:21:dd:df:
        e3:55:90:8a:77:fd:c5:49:b4:3a:03:95:17:0c:33:90:e7:78:
        6c:ef:b4:54:c4:d8:f2:98:f8:c6:66:1a:08:ae:6b:84:30:a4:
        8f:28:d2:52:73:73:00:93:1b:86:78:d2:03:b1:d5:6b:96:90:
        a7:88:12:bb:54:a7:42:b0:cc:b9:37:98:e8:f8:1e:4a:ed:68:
        69:cf:7e:3e:0a:96:bd:7f:8e:94:a2:f0:10:e3:c0:2f:b7:ff:
        a2:95:d3:1a:91:f8:51:b6:85:56:a5:58:05:0b:14:b1:7d:bf:
        11:74:7e:c5:ee:90:a9:bb:83:30:d4:89:ea:7e:2d:32:75:16:
        a3:0b:08:61:5c:84:3d:b2:b2:25:7f:85:d3:e7:0c:a8:9b:7d:
        ce:87:1b:00:15:64:3f:47:72:a2:9f:05:16:7d:50:30:4b:af:
        a3:d9:61:f0:da:48:38:a1:e8:e4:cd:cf:31:74:a3:98:a5:6d:
        47:a0:ad:5e:05:d9:5e:3d:8e:3e:b1:46:ae:11:ff:bb:80:88:
        c5:21:81:6b:75:9e:d3:1a:6b:66:09:a4:1c:ca:f1:4c:aa:14:
        63:c8:ca:ba:63:c9:70:4a:b4:c2:42:b3:58:4f:c3:38:83:2f:
        d4:c2:a1:60:37:b3:60:3e:ab:a9:03:e7:6c:fb:1c:46:c0:ca:
        46:85:d8:69:01:e1:29:32
-----BEGIN CERTIFICATE-----
MIIGPTCCBCWgAwIBAgIBAjANBgkqhkiG9w0BAQsFADCBkzEmMCQGA1UEAwwdTXkg
Um9vdCBDZXJ0aWZpY2F0ZSBBdXRob3JpdHkxDDAKBgNVBAgMA05TVzELMAkGA1UE
BhMCQVUxIjAgBgkqhkiG9w0BCQEWE3N1cHBvcnRAZXhhbXBsZS5jb20xFDASBgNV
BAoMC0V4YW1wbGUgT3JnMRQwEgYDVQQLDAtEZXZlbG9wbWVudDAeFw0yNTAxMTAx
NzQyMDRaFw0zMDAxMDkxNzQyMDRaMIGJMRQwEgYDVQQDDAt2YXVsdF9hZ2VudDEY
MBYGA1UECAwPTmV3IFNvdXRoIFdhbGVzMQswCQYDVQQGEwJBVTEgMB4GCSqGSIb3
DQEJARYRc3VwcG9ydEBjcmF6eS5jb20xEjAQBgNVBAoMCUNyYXp5IE9yZzEUMBIG
A1UECwwLRGV2ZWxvcG1lbnQwggIiMA0GCSqGSIb3DQEBAQUAA4ICDwAwggIKAoIC
AQCnEZ7sytCqEpRs9CSFdepK6KEZ58aZZRFWjDt6S0vnZFHktDzs+ogqoCKUQeXs
2GR/F4dERh9DzhV1RAPSzIAFMCRfCM+V+Ni7YuLI0phifHNn7Nza0cwHR5XdFPzC
tMrs5GLBj3IZt9vKXekz+oBM061w3ANQ+infqIoQLqh0HWcKYsgMx8zz/ARrKoLG
Bxv+XZ8bicmP8YejWnyo1hZPuZv1NdXBBIEFxM4kuEF/8XMmpReLnPAQDtCYT8BF
5MmtPYzZen8oWfkB0dsKCLwh3eF4eorVL6VEGGsagKyOZFsI0Znsj+24StxxFoNS
0h9BsrjRFAPGxaP5escAxp6hucDx5xAlTIGMJtC1g5YPa2roTvLXa1xpXqbVoEIC
tPn5BjLwLZszwTBc3aX5aNVOCUYlfhPR3sBnKpPy1Bten38I3sxEtzkREIg/JC/0
uemkdkwUEr+nScOnij8cNSTW6N6TbZApvxLrD1OcRfE9FJifJA+r3TYvwDBnEHKR
b7kGuviUyuUVvgHxrV0prmzrVNDkafR46S0iEHJ7fOkbxn19TewTwgc/QFZK7ATt
y4DnxJJLGOvYlzxioHYwyfftYLtk1PouGJRSRewYOLCqP6B79J50XfPmoABtZx7D
eLtQayAactUDY/HLAdnGAXPMn2BbLDFcTXDUW5njTlPSlwIDAQABo4GjMIGgMAkG
A1UdEwQCMAAwCwYDVR0PBAQDAgXgMB0GA1UdJQQWMBQGCCsGAQUFBwMBBggrBgEF
BQcDAjAnBgNVHREEIDAegglsb2NhbGhvc3SCC3ZhdWx0X2FnZW50hwR/AAABMB0G
A1UdDgQWBBQNzvpKH3n5JQBNOdADGLqtJPnbETAfBgNVHSMEGDAWgBSZjJgBXP3T
CpEquPc3XBLXpGsJlTANBgkqhkiG9w0BAQsFAAOCAgEAWJZSilWhHLLJMCcIfAUh
iMREXl9LFzmH8ukSJSGDuBsED5pzsF8xq5ZN2aToBzJe2C+QsP7JccV0qnA9IilS
v2xacRpKFwmqdWL/jqZly1IFPn+LXdxGbGy40+S0/+ZJ12q3Ryh/jepjqlRH1s7B
N8Rzixp+3vR+SbWOB/gadQ10NxfuGqXPZYLj/9TH7G73JPtKfbuoO9WlraT9DRm0
ii7sBexltOhZAjGJcpw8VEnRYYC+ZOQwwH6Tb5DFgPBPnxwLujdzxCY/2R3B2b9B
bcLHyqIhInd7v8EcX0I+gl9/Cb6bYJajl5urqGk9EWVEtLq7HuStFSqgId3f41WQ
inf9xUm0OgOVFwwzkOd4bO+0VMTY8pj4xmYaCK5rhDCkjyjSUnNzAJMbhnjSA7HV
a5aQp4gSu1SnQrDMuTeY6PgeSu1oac9+PgqWvX+OlKLwEOPAL7f/opXTGpH4UbaF
VqVYBQsUsX2/EXR+xe6QqbuDMNSJ6n4tMnUWowsIYVyEPbKyJX+F0+cMqJt9zocb
ABVkP0dyop8FFn1QMEuvo9lh8NpIOKHo5M3PMXSjmKVtR6CtXgXZXj2OPrFGrhH/
u4CIxSGBa3We0xprZgmkHMrxTKoUY8jKumPJcEq0wkKzWE/DOIMv1MKhYDezYD6r
qQPnbPscRsDKRoXYaQHhKTI=
-----END CERTIFICATE-----
