Certificate:
    Data:
        Version: 3 (0x2)
        Serial Number: 2 (0x2)
        Signature Algorithm: sha256WithRSAEncryption
        Issuer: CN=Intermediate Certificate Authority, C=AU/emailAddress=support@security.com, O=Security Organization, ST=New South Wales, OU=Certificate Authority
        Validity
            Not Before: Jan 14 00:09:20 2025 GMT
            Not After : Jan 14 00:09:20 2027 GMT
        Subject: CN=vault_agent, C=AU/emailAddress=support@crazy.com, O=Crazy Org, ST=New South Wales, OU=Development
        Subject Public Key Info:
            Public Key Algorithm: rsaEncryption
                Public-Key: (4096 bit)
                Modulus:
                    00:ad:6c:bc:e7:f8:2f:8e:7c:78:c4:41:f0:55:55:
                    45:20:49:a8:57:41:06:67:eb:a2:b6:8f:79:b8:a8:
                    28:ab:f3:dc:85:11:d6:c5:70:ec:b5:ca:ff:d7:9c:
                    df:88:da:07:43:52:72:eb:5b:71:04:31:cd:53:0b:
                    fd:39:32:a9:0d:bc:a2:21:0a:1a:36:88:9d:e6:4a:
                    03:a7:71:8b:c6:6f:aa:9e:98:16:72:6f:e0:53:a7:
                    f7:44:17:e2:df:1a:db:8e:68:cc:87:16:96:da:b5:
                    e5:d1:f2:04:21:f8:81:6d:80:8c:96:1c:2f:87:0c:
                    d0:ff:cb:3e:b9:ae:ff:df:c5:59:bd:33:58:9a:12:
                    f2:fb:37:b2:d0:c1:2a:72:3f:68:b4:ef:ea:5d:af:
                    4b:20:f7:26:8e:cd:a8:63:80:c9:e8:4a:9d:72:73:
                    9e:27:0d:71:f9:62:f0:2b:5c:54:fc:5b:4b:e7:19:
                    8c:91:5a:3b:0b:5a:fe:0a:16:6e:74:a1:4a:bd:1a:
                    a2:35:d9:93:42:d8:d2:15:a0:ce:81:5e:ac:8c:86:
                    2a:c9:e6:99:c9:40:ae:96:5b:00:b7:aa:92:81:e7:
                    a5:45:ef:6d:1c:2e:d7:1e:90:b2:72:d9:24:f4:a9:
                    d7:eb:14:e0:ad:69:0f:a8:d1:ae:6b:ed:d6:1d:a2:
                    9f:17:d5:fb:4d:c7:3b:7f:0e:71:2d:42:cd:2f:ca:
                    81:78:17:03:7f:39:36:6b:89:10:a8:e6:15:a0:ff:
                    cf:04:5d:c9:66:ec:33:f3:01:88:04:c9:31:ae:30:
                    99:1f:48:28:38:ab:a4:bb:e4:01:e1:11:a1:49:9a:
                    5a:f4:e1:5a:e6:ab:75:92:9c:8b:9a:2d:28:99:ee:
                    83:55:31:c9:ad:4f:67:5f:6b:10:8a:bf:af:fb:9c:
                    e9:6f:97:59:fb:e1:5b:e6:ea:e8:05:76:90:c5:8d:
                    76:f4:f2:b1:af:1e:06:7b:1a:e7:2e:4d:48:81:d1:
                    fb:36:d2:78:f9:c3:13:f1:c4:5c:93:1b:c5:03:20:
                    43:16:5d:68:9d:cd:63:ff:a3:d5:cb:ec:18:30:a3:
                    90:c3:d0:97:99:cb:41:83:2a:00:ca:90:df:78:fa:
                    f3:89:75:f8:20:13:a8:90:4a:de:a5:1e:e8:fd:99:
                    ea:bc:b5:80:5b:f6:f1:d4:0b:27:6a:18:d5:14:3f:
                    56:f1:52:ee:97:73:11:a0:69:6e:18:cc:f0:0d:24:
                    96:a1:e6:e4:dc:c4:85:23:4d:a0:d5:7b:11:42:99:
                    13:95:94:8d:3b:a5:00:9d:bf:af:53:2d:60:0e:a4:
                    4d:01:d8:dc:68:e7:fa:58:9a:cc:29:7a:c4:e7:8a:
                    88:73:3b
                Exponent: 65537 (0x10001)
        X509v3 extensions:
            X509v3 Basic Constraints: 
                CA:FALSE
            X509v3 Key Usage: 
                Digital Signature, Key Encipherment
            X509v3 Extended Key Usage: 
                TLS Web Server Authentication, TLS Web Client Authentication
            X509v3 Subject Key Identifier: 
                0E:A5:86:AF:C1:47:8B:40:29:90:ED:63:99:12:C6:E0:E5:B5:46:30
            X509v3 Authority Key Identifier: 
                4A:5B:FA:1E:0D:84:04:B4:C7:7E:23:42:FF:31:D7:A2:4F:CE:CD:11
            X509v3 Subject Alternative Name: 
                DNS:localhost, DNS:vault_agent, IP Address:127.0.0.1
    Signature Algorithm: sha256WithRSAEncryption
    Signature Value:
        8b:b4:e7:46:75:84:0f:18:01:6a:31:b3:6d:f3:39:cc:c5:4a:
        c1:27:ab:60:0c:50:69:71:ec:0a:ec:94:7e:90:0a:7f:95:a2:
        fd:81:d4:93:13:c7:47:77:f3:c4:49:04:0c:92:34:76:c1:5c:
        27:f9:9b:0d:11:a8:a6:81:d7:d3:81:a0:d8:42:95:10:88:49:
        4f:a6:c6:1b:59:30:03:1d:70:bd:6a:ce:f4:8c:c2:85:07:16:
        e4:2e:c9:19:65:a9:5b:4c:ce:1a:74:e2:dc:72:b9:e9:87:d3:
        1e:41:ce:d7:f3:49:89:4c:eb:5e:82:f5:a0:0f:b0:32:31:a4:
        5d:7b:36:14:b2:e2:0c:83:69:ed:e6:6b:f5:f9:6b:31:a7:78:
        2f:2d:9e:1d:66:31:46:e7:1d:42:7c:53:79:e2:69:35:42:41:
        f6:bf:cd:44:2f:c3:99:a9:91:c6:2d:fa:05:3a:1d:e5:6e:32:
        f3:89:9e:d1:bf:99:dd:6a:da:0f:38:f6:ba:f1:8a:fc:8b:53:
        33:f9:7c:05:66:fb:68:b7:81:4f:ee:7e:0a:37:5e:62:41:b8:
        02:12:71:a4:fc:cf:b3:03:41:96:32:e8:c3:a8:d8:fd:1f:e4:
        61:70:2f:83:dc:8a:92:ce:ae:0e:a1:47:fd:ac:19:7e:94:7c:
        64:e6:15:92:52:55:52:58:06:3b:3d:d6:a0:85:36:25:46:5f:
        a6:dc:54:c6:88:27:ac:d7:97:44:ae:e5:ae:94:75:ea:f6:58:
        e1:93:e0:93:1d:be:48:87:b3:38:96:f6:e2:bf:15:c4:0e:f8:
        6e:54:41:f1:6d:1c:50:c3:62:cb:26:ba:2f:37:c0:2e:c3:76:
        9a:3f:32:72:e5:ec:6c:88:6c:58:9a:e0:77:cb:dd:1c:25:42:
        f9:bb:56:48:12:84:d2:17:d9:bd:d1:f5:01:10:32:06:b3:4e:
        da:da:87:ad:1c:c3:11:48:14:51:68:73:af:57:62:de:50:c0:
        80:3b:04:08:b5:52:e5:91:2f:32:07:1f:b5:a3:f7:cf:73:61:
        6c:17:e1:aa:36:64:70:c7:be:73:c4:32:c9:88:f9:53:5d:d3:
        2c:9b:f5:ea:fb:cc:74:92:04:2e:c6:fe:be:7a:f8:25:f0:e7:
        a9:a2:35:10:1f:4c:c6:02:1e:bf:39:55:37:08:1f:61:94:fb:
        35:f9:fb:08:ef:e5:bc:41:8b:9a:a8:35:cc:67:22:09:e5:e7:
        c4:8c:83:0f:9e:4a:57:d9:de:bd:43:7e:c5:37:f1:ec:4b:96:
        47:24:8e:c2:7d:77:c8:40:5a:a7:1a:ff:a3:60:a4:8f:36:fe:
        50:1b:a5:c5:bb:96:b5:09
-----BEGIN CERTIFICATE-----
MIIGYzCCBEugAwIBAgIBAjANBgkqhkiG9w0BAQsFADCBuTErMCkGA1UEAwwiSW50
ZXJtZWRpYXRlIENlcnRpZmljYXRlIEF1dGhvcml0eTELMAkGA1UEBhMCQVUxIzAh
BgkqhkiG9w0BCQEWFHN1cHBvcnRAc2VjdXJpdHkuY29tMR4wHAYDVQQKDBVTZWN1
cml0eSBPcmdhbml6YXRpb24xGDAWBgNVBAgMD05ldyBTb3V0aCBXYWxlczEeMBwG
A1UECwwVQ2VydGlmaWNhdGUgQXV0aG9yaXR5MB4XDTI1MDExNDAwMDkyMFoXDTI3
MDExNDAwMDkyMFowgYkxFDASBgNVBAMMC3ZhdWx0X2FnZW50MQswCQYDVQQGEwJB
VTEgMB4GCSqGSIb3DQEJARYRc3VwcG9ydEBjcmF6eS5jb20xEjAQBgNVBAoMCUNy
YXp5IE9yZzEYMBYGA1UECAwPTmV3IFNvdXRoIFdhbGVzMRQwEgYDVQQLDAtEZXZl
bG9wbWVudDCCAiIwDQYJKoZIhvcNAQEBBQADggIPADCCAgoCggIBAK1svOf4L458
eMRB8FVVRSBJqFdBBmfroraPebioKKvz3IUR1sVw7LXK/9ec34jaB0NScutbcQQx
zVML/TkyqQ28oiEKGjaIneZKA6dxi8Zvqp6YFnJv4FOn90QX4t8a245ozIcWltq1
5dHyBCH4gW2AjJYcL4cM0P/LPrmu/9/FWb0zWJoS8vs3stDBKnI/aLTv6l2vSyD3
Jo7NqGOAyehKnXJznicNcfli8CtcVPxbS+cZjJFaOwta/goWbnShSr0aojXZk0LY
0hWgzoFerIyGKsnmmclArpZbALeqkoHnpUXvbRwu1x6QsnLZJPSp1+sU4K1pD6jR
rmvt1h2inxfV+03HO38OcS1CzS/KgXgXA385NmuJEKjmFaD/zwRdyWbsM/MBiATJ
Ma4wmR9IKDirpLvkAeERoUmaWvThWuardZKci5otKJnug1Uxya1PZ19rEIq/r/uc
6W+XWfvhW+bq6AV2kMWNdvTysa8eBnsa5y5NSIHR+zbSePnDE/HEXJMbxQMgQxZd
aJ3NY/+j1cvsGDCjkMPQl5nLQYMqAMqQ33j684l1+CATqJBK3qUe6P2Z6ry1gFv2
8dQLJ2oY1RQ/VvFS7pdzEaBpbhjM8A0klqHm5NzEhSNNoNV7EUKZE5WUjTulAJ2/
r1MtYA6kTQHY3Gjn+liazCl6xOeKiHM7AgMBAAGjgaMwgaAwCQYDVR0TBAIwADAL
BgNVHQ8EBAMCBaAwHQYDVR0lBBYwFAYIKwYBBQUHAwEGCCsGAQUFBwMCMB0GA1Ud
DgQWBBQOpYavwUeLQCmQ7WOZEsbg5bVGMDAfBgNVHSMEGDAWgBRKW/oeDYQEtMd+
I0L/MdeiT87NETAnBgNVHREEIDAegglsb2NhbGhvc3SCC3ZhdWx0X2FnZW50hwR/
AAABMA0GCSqGSIb3DQEBCwUAA4ICAQCLtOdGdYQPGAFqMbNt8znMxUrBJ6tgDFBp
cewK7JR+kAp/laL9gdSTE8dHd/PESQQMkjR2wVwn+ZsNEaimgdfTgaDYQpUQiElP
psYbWTADHXC9as70jMKFBxbkLskZZalbTM4adOLccrnph9MeQc7X80mJTOtegvWg
D7AyMaRdezYUsuIMg2nt5mv1+Wsxp3gvLZ4dZjFG5x1CfFN54mk1QkH2v81EL8OZ
qZHGLfoFOh3lbjLziZ7Rv5ndatoPOPa68Yr8i1Mz+XwFZvtot4FP7n4KN15iQbgC
EnGk/M+zA0GWMujDqNj9H+RhcC+D3IqSzq4OoUf9rBl+lHxk5hWSUlVSWAY7Pdag
hTYlRl+m3FTGiCes15dEruWulHXq9ljhk+CTHb5Ih7M4lvbivxXEDvhuVEHxbRxQ
w2LLJrovN8Auw3aaPzJy5exsiGxYmuB3y90cJUL5u1ZIEoTSF9m90fUBEDIGs07a
2oetHMMRSBRRaHOvV2LeUMCAOwQItVLlkS8yBx+1o/fPc2FsF+GqNmRwx75zxDLJ
iPlTXdMsm/Xq+8x0kgQuxv6+evgl8OepojUQH0zGAh6/OVU3CB9hlPs1+fsI7+W8
QYuaqDXMZyIJ5efEjIMPnkpX2d69Q37FN/HsS5ZHJI7CfXfIQFqnGv+jYKSPNv5Q
G6XFu5a1CQ==
-----END CERTIFICATE-----
