Certificate:
    Data:
        Version: 3 (0x2)
        Serial Number: 2 (0x2)
        Signature Algorithm: sha256WithRSAEncryption
        Issuer: CN=Root Certificate Authority, C=AU/emailAddress=support@security.com, ST=New South Wales, O=Security Organization, OU=Certificate Authority
        Validity
            Not Before: Jan 13 00:54:06 2025 GMT
            Not After : Jan  8 00:54:06 2045 GMT
        Subject: CN=vault_agent, C=AU/emailAddress=support@crazy.com, O=Crazy Org, ST=New South Wales, OU=Development
        Subject Public Key Info:
            Public Key Algorithm: rsaEncryption
                Public-Key: (4096 bit)
                Modulus:
                    00:88:95:6b:2b:05:c5:85:cc:5f:4a:6d:5b:04:91:
                    76:9b:4f:c3:76:8d:d6:7e:46:30:d4:f8:3c:2b:b6:
                    ec:28:25:be:8c:80:b4:09:09:e7:16:d0:a0:84:f5:
                    13:5a:e0:35:e1:c5:ef:b7:77:3f:cd:f1:f4:0d:73:
                    ff:fc:6c:8f:90:68:61:61:45:21:76:46:2f:60:0a:
                    60:fe:c6:4a:cf:ec:90:9f:fb:9b:95:de:1f:3a:96:
                    ff:41:bb:33:27:7a:63:6c:20:9f:e8:dd:a0:8e:c2:
                    18:4d:c9:fa:84:34:64:8f:50:90:0d:de:3b:fa:2c:
                    46:72:1a:bc:da:bf:3e:fc:7f:5f:04:5b:38:51:4f:
                    4e:03:13:21:04:d4:51:fc:6b:e7:81:3b:9a:41:19:
                    1b:c4:2a:81:ca:7b:9e:38:4e:05:84:9c:02:7a:9e:
                    d6:12:08:6b:72:8d:39:81:35:06:25:55:60:e7:f4:
                    b8:dc:1f:91:30:26:f2:b8:03:71:88:35:fc:eb:dc:
                    18:14:9b:aa:5b:d8:fb:7e:1b:7e:75:12:d4:ca:77:
                    b9:7f:f7:9e:d5:b0:0d:99:41:d4:b7:74:0b:4f:9b:
                    bc:8f:54:d7:04:d8:cb:dd:0f:31:4e:9b:8c:ee:9f:
                    9f:bf:01:03:47:a9:6f:4e:65:bd:53:86:60:23:f1:
                    59:e2:12:80:e2:f4:25:e1:76:bc:89:6e:7f:25:4f:
                    e3:70:d7:75:a0:f4:0d:fb:7a:d5:9f:e5:c0:fe:16:
                    c2:cc:a9:fa:de:dd:ff:35:e9:ca:51:47:62:68:c9:
                    97:cc:e6:33:13:5a:4d:15:a3:46:06:c5:3f:ec:74:
                    60:a7:d3:7a:b4:78:cb:58:f0:93:05:4c:7e:9d:db:
                    38:f3:e4:b3:05:98:8a:c5:6d:f1:52:44:ee:b7:a7:
                    d9:72:0c:b5:67:68:70:1e:dd:77:fb:89:03:7c:ea:
                    06:41:00:27:ef:23:6b:cf:42:ec:96:ee:cd:02:36:
                    6f:5f:74:de:20:7a:05:fe:f0:eb:e1:cd:d5:40:c9:
                    ba:bc:cb:79:16:76:8c:80:32:4f:ce:f2:46:02:9c:
                    e4:10:f3:f0:5e:d2:ee:39:17:f8:c7:e5:b5:0f:12:
                    9b:4c:29:c0:43:91:72:51:1e:62:b4:6f:d6:40:a6:
                    4a:95:73:bb:af:6a:4c:e3:0f:d4:ff:53:c0:9c:76:
                    e7:a7:41:cd:59:9e:de:ba:d0:22:3a:1a:d6:61:1e:
                    0a:fd:f0:97:76:b6:c2:0a:bb:66:56:57:07:0b:98:
                    7b:13:d3:08:c0:57:c0:57:e4:93:b0:3e:51:22:e1:
                    45:46:0b:72:13:a0:b7:99:54:59:16:93:2e:a8:03:
                    1b:c8:49
                Exponent: 65537 (0x10001)
        X509v3 extensions:
            X509v3 Basic Constraints: 
                CA:FALSE
            X509v3 Key Usage: 
                Digital Signature, Non Repudiation, Key Encipherment
            X509v3 Extended Key Usage: 
                TLS Web Server Authentication, TLS Web Client Authentication
            X509v3 Subject Alternative Name: 
                DNS:localhost, DNS:vault_agent, IP Address:127.0.0.1
            X509v3 Subject Key Identifier: 
                7F:F5:63:4C:F6:4C:A6:F7:B8:BF:17:B9:48:6A:0C:EC:11:1C:C7:8A
            X509v3 Authority Key Identifier: 
                F9:45:3D:89:5B:46:EA:5E:CF:B0:86:0D:47:C2:7E:FE:52:AC:93:EE
    Signature Algorithm: sha256WithRSAEncryption
    Signature Value:
        47:f1:a9:10:ab:6a:74:54:1a:6f:0e:b4:0c:89:5c:e7:b5:cd:
        f6:ba:69:a8:e7:9b:6e:ad:c6:22:9c:d3:10:5d:57:fd:ab:24:
        3f:63:2f:15:0b:95:ca:69:bd:3d:cf:d5:e0:1c:b9:e8:22:fb:
        6f:b1:93:5c:3c:70:ae:36:6e:db:80:94:87:21:5f:01:7f:60:
        5b:6a:72:c0:71:0c:e4:7c:96:a0:e3:a2:83:a8:f9:06:54:01:
        70:d6:ad:a6:92:f7:8a:a8:f1:56:10:13:2c:fe:1e:8a:2d:85:
        65:03:e8:0a:8a:c6:1c:02:17:79:51:50:39:61:e8:20:f8:bc:
        7b:cb:0e:d8:65:ac:3a:f4:ed:29:c5:bb:d0:e7:e0:54:28:e6:
        07:f4:83:11:4a:4b:15:db:16:da:11:47:dd:f5:f6:33:fb:32:
        21:3f:e5:88:d4:c0:e4:8b:2d:8f:74:ed:fe:25:4e:44:50:5d:
        c7:03:5e:fe:be:6e:36:a1:5f:77:5d:d1:f7:2b:37:ae:88:54:
        c6:97:31:75:b9:a4:ac:80:47:00:76:5d:d1:05:b8:ac:d2:a1:
        5a:8a:b8:75:55:82:03:47:86:0c:46:b5:1a:c2:40:31:c0:1e:
        a2:7b:07:20:3b:e4:12:5d:02:b0:5e:43:ca:7a:a7:20:15:65:
        3a:91:37:4d:dd:e5:d5:c0:1b:d9:07:cb:38:d1:7a:ee:85:cb:
        f7:6d:67:26:1e:b6:cc:4f:fd:3e:86:a1:c6:81:8e:ae:86:53:
        97:97:1b:09:a7:cc:c9:9f:45:ba:02:55:36:da:58:54:af:09:
        c0:ea:ac:08:06:b4:22:5b:85:17:5d:74:24:eb:ca:74:38:31:
        66:3a:29:98:ad:18:58:87:2a:37:37:9d:5b:af:5b:b0:ce:dd:
        94:cf:13:8a:7e:6f:10:5d:6f:5c:4d:90:93:54:4f:f4:de:a7:
        bd:a1:d5:64:94:22:e7:c8:e1:fc:99:e5:85:d1:82:50:18:04:
        4e:34:d6:1a:5f:fc:bf:14:d4:97:e3:a5:22:a0:2b:2a:3e:8e:
        2c:28:64:68:2d:be:c6:40:b2:4e:d6:dd:09:d7:d4:36:ea:d5:
        ef:78:80:4f:ea:ab:5a:9f:1e:fc:a8:00:5f:0e:ce:fa:ef:6f:
        ea:b4:80:b5:85:aa:59:e9:f1:85:8e:74:3e:e1:56:96:7e:3b:
        12:56:ce:a0:b9:da:08:54:0b:20:c5:60:a9:db:da:d9:d0:7c:
        a5:b9:3d:4c:68:da:93:43:c2:f5:93:97:c5:b9:78:70:47:a0:
        11:8d:2d:d0:15:6d:08:95:9b:08:c9:45:d9:45:3d:0d:cb:a9:
        02:2c:94:db:39:e5:9c:47
-----BEGIN CERTIFICATE-----
MIIGWzCCBEOgAwIBAgIBAjANBgkqhkiG9w0BAQsFADCBsTEjMCEGA1UEAwwaUm9v
dCBDZXJ0aWZpY2F0ZSBBdXRob3JpdHkxCzAJBgNVBAYTAkFVMSMwIQYJKoZIhvcN
AQkBFhRzdXBwb3J0QHNlY3VyaXR5LmNvbTEYMBYGA1UECAwPTmV3IFNvdXRoIFdh
bGVzMR4wHAYDVQQKDBVTZWN1cml0eSBPcmdhbml6YXRpb24xHjAcBgNVBAsMFUNl
cnRpZmljYXRlIEF1dGhvcml0eTAeFw0yNTAxMTMwMDU0MDZaFw00NTAxMDgwMDU0
MDZaMIGJMRQwEgYDVQQDDAt2YXVsdF9hZ2VudDELMAkGA1UEBhMCQVUxIDAeBgkq
hkiG9w0BCQEWEXN1cHBvcnRAY3JhenkuY29tMRIwEAYDVQQKDAlDcmF6eSBPcmcx
GDAWBgNVBAgMD05ldyBTb3V0aCBXYWxlczEUMBIGA1UECwwLRGV2ZWxvcG1lbnQw
ggIiMA0GCSqGSIb3DQEBAQUAA4ICDwAwggIKAoICAQCIlWsrBcWFzF9KbVsEkXab
T8N2jdZ+RjDU+DwrtuwoJb6MgLQJCecW0KCE9RNa4DXhxe+3dz/N8fQNc//8bI+Q
aGFhRSF2Ri9gCmD+xkrP7JCf+5uV3h86lv9BuzMnemNsIJ/o3aCOwhhNyfqENGSP
UJAN3jv6LEZyGrzavz78f18EWzhRT04DEyEE1FH8a+eBO5pBGRvEKoHKe544TgWE
nAJ6ntYSCGtyjTmBNQYlVWDn9LjcH5EwJvK4A3GINfzr3BgUm6pb2Pt+G351EtTK
d7l/957VsA2ZQdS3dAtPm7yPVNcE2MvdDzFOm4zun5+/AQNHqW9OZb1ThmAj8Vni
EoDi9CXhdryJbn8lT+Nw13Wg9A37etWf5cD+FsLMqfre3f816cpRR2JoyZfM5jMT
Wk0Vo0YGxT/sdGCn03q0eMtY8JMFTH6d2zjz5LMFmIrFbfFSRO63p9lyDLVnaHAe
3Xf7iQN86gZBACfvI2vPQuyW7s0CNm9fdN4gegX+8OvhzdVAybq8y3kWdoyAMk/O
8kYCnOQQ8/Be0u45F/jH5bUPEptMKcBDkXJRHmK0b9ZApkqVc7uvakzjD9T/U8Cc
duenQc1Znt660CI6GtZhHgr98Jd2tsIKu2ZWVwcLmHsT0wjAV8BX5JOwPlEi4UVG
C3IToLeZVFkWky6oAxvISQIDAQABo4GjMIGgMAkGA1UdEwQCMAAwCwYDVR0PBAQD
AgXgMB0GA1UdJQQWMBQGCCsGAQUFBwMBBggrBgEFBQcDAjAnBgNVHREEIDAeggls
b2NhbGhvc3SCC3ZhdWx0X2FnZW50hwR/AAABMB0GA1UdDgQWBBR/9WNM9kym97i/
F7lIagzsERzHijAfBgNVHSMEGDAWgBT5RT2JW0bqXs+whg1Hwn7+UqyT7jANBgkq
hkiG9w0BAQsFAAOCAgEAR/GpEKtqdFQabw60DIlc57XN9rppqOebbq3GIpzTEF1X
/askP2MvFQuVymm9Pc/V4By56CL7b7GTXDxwrjZu24CUhyFfAX9gW2pywHEM5HyW
oOOig6j5BlQBcNatppL3iqjxVhATLP4eii2FZQPoCorGHAIXeVFQOWHoIPi8e8sO
2GWsOvTtKcW70OfgVCjmB/SDEUpLFdsW2hFH3fX2M/syIT/liNTA5Istj3Tt/iVO
RFBdxwNe/r5uNqFfd13R9ys3rohUxpcxdbmkrIBHAHZd0QW4rNKhWoq4dVWCA0eG
DEa1GsJAMcAeonsHIDvkEl0CsF5DynqnIBVlOpE3Td3l1cAb2QfLONF67oXL921n
Jh62zE/9PoahxoGOroZTl5cbCafMyZ9FugJVNtpYVK8JwOqsCAa0IluFF110JOvK
dDgxZjopmK0YWIcqNzedW69bsM7dlM8Tin5vEF1vXE2Qk1RP9N6nvaHVZJQi58jh
/JnlhdGCUBgETjTWGl/8vxTUl+OlIqArKj6OLChkaC2+xkCyTtbdCdfUNurV73iA
T+qrWp8e/KgAXw7O+u9v6rSAtYWqWenxhY50PuFWln47ElbOoLnaCFQLIMVgqdva
2dB8pbk9TGjak0PC9ZOXxbl4cEegEY0t0BVtCJWbCMlF2UU9DcupAiyU2znlnEc=
-----END CERTIFICATE-----
