Certificate:
    Data:
        Version: 3 (0x2)
        Serial Number: 1 (0x1)
        Signature Algorithm: sha256WithRSAEncryption
        Issuer: CN=Root Certificate Authority, C=AU/emailAddress=support@security.com, ST=New South Wales, O=Security Organization, OU=Certificate Authority
        Validity
            Not Before: Jan 15 00:18:31 2025 GMT
            Not After : Jan 10 00:18:31 2045 GMT
        Subject: CN=Intermediate Certificate Authority, C=AU/emailAddress=support@security.com, O=Security Organization, ST=New South Wales, OU=Certificate Authority
        Subject Public Key Info:
            Public Key Algorithm: rsaEncryption
                Public-Key: (4096 bit)
                Modulus:
                    00:b9:d4:30:a2:cf:83:f4:1f:6a:dc:48:67:cf:a6:
                    72:c0:1b:a7:52:02:45:90:47:61:a5:4a:76:41:67:
                    28:c6:98:ea:06:76:9a:ca:94:98:54:04:64:94:80:
                    f3:35:c8:49:47:4d:f4:5d:d9:bf:68:ce:d0:69:6a:
                    50:1c:8a:6e:e4:17:95:1b:d6:ab:04:d5:bb:fb:11:
                    40:42:bd:4a:9c:cf:cb:48:22:ac:7a:c1:f3:66:64:
                    1f:3a:a0:ac:9e:aa:6a:13:7e:e7:35:76:e0:02:9d:
                    36:e3:09:3c:30:41:c9:82:14:b0:d8:3e:ab:48:a5:
                    fc:d0:50:25:5e:a9:24:ae:82:56:b8:cd:97:e4:8f:
                    c2:b4:19:64:4d:65:82:06:a7:25:e8:48:4f:eb:51:
                    66:b8:a1:45:1f:a2:71:89:b5:3b:7e:c0:aa:6a:53:
                    58:b9:99:75:08:f5:72:87:fa:95:b1:5f:61:1e:46:
                    15:e0:d8:4c:6c:36:da:78:cc:98:50:a3:b2:e2:2a:
                    21:37:da:bb:d3:f3:00:dd:26:4f:a7:c6:e3:03:9e:
                    96:ab:ff:7c:fe:09:b5:0c:d1:32:ac:0f:79:e3:68:
                    f5:82:80:bb:46:a6:58:34:ff:20:26:65:3e:53:88:
                    76:38:f0:77:4e:40:c6:70:ba:33:b2:f8:62:b7:d2:
                    18:b0:aa:f2:2a:c8:c1:7e:58:f3:9f:05:e8:2c:7c:
                    52:0b:62:96:9b:0f:21:63:25:67:8f:1f:c5:5c:6e:
                    53:c6:d9:bf:66:72:54:ea:a7:ee:2b:e4:59:db:48:
                    25:d6:00:e1:ae:19:c4:ef:e2:0a:02:5d:8e:a6:98:
                    f1:96:ed:29:41:fe:f4:26:0c:76:32:11:3f:0b:8b:
                    43:ca:76:7c:1d:f2:6e:36:cd:19:7f:1d:24:68:2d:
                    ad:25:59:d1:ac:3b:d4:7e:2d:10:b3:59:67:c2:fd:
                    d1:47:b0:2f:94:02:db:68:c1:fc:85:d8:54:f6:c9:
                    ce:87:18:f7:fd:11:2a:38:d9:83:88:4d:c8:bf:f4:
                    a6:ee:ca:ce:14:a9:79:5d:3e:b0:af:49:8e:4a:e0:
                    70:82:42:76:5e:a5:5a:f8:97:62:9a:2e:0f:a4:fc:
                    18:80:94:0e:58:12:e7:65:f7:6b:4b:83:b3:cb:24:
                    d8:03:b4:29:06:f4:14:11:6f:fb:41:48:c9:4d:75:
                    2c:dc:6d:e0:26:fc:89:f0:b7:f9:73:92:99:06:35:
                    ca:de:2e:17:d2:99:d1:a0:f3:8f:b5:88:8b:45:23:
                    bd:cf:14:78:32:9c:11:4e:ee:b7:23:fa:40:db:af:
                    d4:37:a2:76:94:b4:b1:ab:a6:8b:d0:c7:f6:1c:19:
                    0c:45:31
                Exponent: 65537 (0x10001)
        X509v3 extensions:
            X509v3 Basic Constraints: critical
                CA:TRUE, pathlen:1
            X509v3 Key Usage: critical
                Certificate Sign, CRL Sign
            Authority Information Access: 
                OCSP - URI:http://ocsp.security.com
            X509v3 CRL Distribution Points: 
                Full Name:
                  URI:http://crl.security.com/root-ca.crl
            X509v3 Subject Key Identifier: 
                E6:67:DF:15:DC:E8:35:65:3E:2E:B9:24:E0:D9:12:57:63:0B:95:50
            X509v3 Authority Key Identifier: 
                E0:77:27:FF:FA:DA:E2:21:2E:8F:48:CF:03:79:82:61:DE:BC:3E:82
    Signature Algorithm: sha256WithRSAEncryption
    Signature Value:
        5f:22:31:ab:a1:18:0d:9b:26:c2:fb:5c:6b:93:02:c8:37:f7:
        eb:6a:65:d4:c4:6b:80:a7:7e:6c:40:82:00:01:a3:34:6b:34:
        eb:98:2f:11:e1:b0:40:96:6d:f8:4c:d5:b1:02:e0:f3:85:5d:
        5b:00:ba:9d:8a:2d:ea:5b:0c:a1:49:6c:a1:e1:75:f9:b2:c0:
        86:fc:01:f0:d5:c2:54:9a:e6:7d:2f:7b:da:4d:d3:10:24:8a:
        4d:f0:1a:74:04:87:6a:22:0b:2d:b3:e8:f7:b8:81:3b:1f:2f:
        f0:aa:4a:fb:60:66:25:c4:54:01:57:86:fe:d6:b6:45:59:d8:
        91:ac:0f:22:ac:5c:c7:0d:68:a2:5a:04:cd:63:f4:2c:a4:5e:
        3a:8b:55:d1:23:63:5b:9d:92:f7:a7:a2:dc:46:0f:fc:95:8f:
        b8:c8:17:20:d3:94:54:d2:50:c9:37:5d:c4:16:24:1d:10:0e:
        74:ed:dd:d3:8f:f6:a9:49:85:7a:05:ae:b4:40:97:72:ae:73:
        ca:b9:20:cf:5c:48:5b:21:70:e5:31:26:a2:4c:4c:a5:ac:1e:
        f5:4e:c3:6c:45:1b:d3:7d:8d:fe:6c:44:26:45:19:d5:eb:6e:
        74:9a:3a:e1:9f:bc:9c:5a:29:ee:3b:fd:f5:2f:af:b6:58:e2:
        52:0f:3f:04:86:92:cb:6e:fb:3a:1f:f4:69:07:99:6b:9b:fc:
        2f:b3:44:7c:ae:47:46:45:cd:06:4a:49:2e:0e:fd:33:8c:31:
        44:72:e1:34:41:01:58:0d:df:a1:7c:45:52:28:c1:91:45:5a:
        e4:53:72:64:67:c5:be:aa:09:22:26:e7:7d:83:96:85:a1:ab:
        e7:fe:92:0f:2a:d3:1a:72:d4:2b:99:35:10:e5:ce:59:ee:a1:
        f2:02:e7:92:83:01:af:42:a8:eb:15:43:ee:5f:55:91:47:9c:
        6f:4c:72:80:34:b1:ed:aa:21:83:fb:2b:f3:6a:fc:2e:49:23:
        ef:0e:9e:58:f6:db:4e:36:32:ce:cd:ec:42:df:f4:a5:f2:ce:
        38:33:a4:c6:ab:ca:c5:b9:4a:0b:0f:c3:e5:98:e7:10:25:ee:
        99:f5:26:cf:3d:5b:fd:c2:c5:18:a8:0a:12:45:1d:53:a8:11:
        db:73:c8:16:5b:7e:71:48:04:e6:cf:c5:ed:4d:dd:11:fc:de:
        5a:83:a9:52:33:02:b0:16:0b:ad:bf:c0:a2:01:a5:bc:44:35:
        29:59:2e:a2:ed:71:73:18:01:66:eb:fe:48:8a:8b:3f:6d:7a:
        7d:0f:1d:7d:7b:19:3c:83:b2:0b:ac:0e:4f:35:92:82:57:e5:
        68:40:1e:8c:cd:ba:c5:e2
-----BEGIN CERTIFICATE-----
MIIGuzCCBKOgAwIBAgIBATANBgkqhkiG9w0BAQsFADCBsTEjMCEGA1UEAwwaUm9v
dCBDZXJ0aWZpY2F0ZSBBdXRob3JpdHkxCzAJBgNVBAYTAkFVMSMwIQYJKoZIhvcN
AQkBFhRzdXBwb3J0QHNlY3VyaXR5LmNvbTEYMBYGA1UECAwPTmV3IFNvdXRoIFdh
bGVzMR4wHAYDVQQKDBVTZWN1cml0eSBPcmdhbml6YXRpb24xHjAcBgNVBAsMFUNl
cnRpZmljYXRlIEF1dGhvcml0eTAeFw0yNTAxMTUwMDE4MzFaFw00NTAxMTAwMDE4
MzFaMIG5MSswKQYDVQQDDCJJbnRlcm1lZGlhdGUgQ2VydGlmaWNhdGUgQXV0aG9y
aXR5MQswCQYDVQQGEwJBVTEjMCEGCSqGSIb3DQEJARYUc3VwcG9ydEBzZWN1cml0
eS5jb20xHjAcBgNVBAoMFVNlY3VyaXR5IE9yZ2FuaXphdGlvbjEYMBYGA1UECAwP
TmV3IFNvdXRoIFdhbGVzMR4wHAYDVQQLDBVDZXJ0aWZpY2F0ZSBBdXRob3JpdHkw
ggIiMA0GCSqGSIb3DQEBAQUAA4ICDwAwggIKAoICAQC51DCiz4P0H2rcSGfPpnLA
G6dSAkWQR2GlSnZBZyjGmOoGdprKlJhUBGSUgPM1yElHTfRd2b9oztBpalAcim7k
F5Ub1qsE1bv7EUBCvUqcz8tIIqx6wfNmZB86oKyeqmoTfuc1duACnTbjCTwwQcmC
FLDYPqtIpfzQUCVeqSSugla4zZfkj8K0GWRNZYIGpyXoSE/rUWa4oUUfonGJtTt+
wKpqU1i5mXUI9XKH+pWxX2EeRhXg2ExsNtp4zJhQo7LiKiE32rvT8wDdJk+nxuMD
npar/3z+CbUM0TKsD3njaPWCgLtGplg0/yAmZT5TiHY48HdOQMZwujOy+GK30hiw
qvIqyMF+WPOfBegsfFILYpabDyFjJWePH8VcblPG2b9mclTqp+4r5FnbSCXWAOGu
GcTv4goCXY6mmPGW7SlB/vQmDHYyET8Li0PKdnwd8m42zRl/HSRoLa0lWdGsO9R+
LRCzWWfC/dFHsC+UAttowfyF2FT2yc6HGPf9ESo42YOITci/9Kbuys4UqXldPrCv
SY5K4HCCQnZepVr4l2KaLg+k/BiAlA5YEudl92tLg7PLJNgDtCkG9BQRb/tBSMlN
dSzcbeAm/Inwt/lzkpkGNcreLhfSmdGg84+1iItFI73PFHgynBFO7rcj+kDbr9Q3
onaUtLGrpovQx/YcGQxFMQIDAQABo4HTMIHQMBIGA1UdEwEB/wQIMAYBAf8CAQEw
DgYDVR0PAQH/BAQDAgEGMDQGCCsGAQUFBwEBBCgwJjAkBggrBgEFBQcwAYYYaHR0
cDovL29jc3Auc2VjdXJpdHkuY29tMDQGA1UdHwQtMCswKaAnoCWGI2h0dHA6Ly9j
cmwuc2VjdXJpdHkuY29tL3Jvb3QtY2EuY3JsMB0GA1UdDgQWBBTmZ98V3Og1ZT4u
uSTg2RJXYwuVUDAfBgNVHSMEGDAWgBTgdyf/+triIS6PSM8DeYJh3rw+gjANBgkq
hkiG9w0BAQsFAAOCAgEAXyIxq6EYDZsmwvtca5MCyDf362pl1MRrgKd+bECCAAGj
NGs065gvEeGwQJZt+EzVsQLg84VdWwC6nYot6lsMoUlsoeF1+bLAhvwB8NXCVJrm
fS972k3TECSKTfAadASHaiILLbPo97iBOx8v8KpK+2BmJcRUAVeG/ta2RVnYkawP
Iqxcxw1ooloEzWP0LKReOotV0SNjW52S96ei3EYP/JWPuMgXINOUVNJQyTddxBYk
HRAOdO3d04/2qUmFegWutECXcq5zyrkgz1xIWyFw5TEmokxMpawe9U7DbEUb032N
/mxEJkUZ1etudJo64Z+8nFop7jv99S+vtljiUg8/BIaSy277Oh/0aQeZa5v8L7NE
fK5HRkXNBkpJLg79M4wxRHLhNEEBWA3foXxFUijBkUVa5FNyZGfFvqoJIibnfYOW
haGr5/6SDyrTGnLUK5k1EOXOWe6h8gLnkoMBr0Ko6xVD7l9VkUecb0xygDSx7aoh
g/sr82r8Lkkj7w6eWPbbTjYyzs3sQt/0pfLOODOkxqvKxblKCw/D5ZjnECXumfUm
zz1b/cLFGKgKEkUdU6gR23PIFlt+cUgE5s/F7U3dEfzeWoOpUjMCsBYLrb/AogGl
vEQ1KVkuou1xcxgBZuv+SIqLP216fQ8dfXsZPIOyC6wOTzWSglflaEAejM26xeI=
-----END CERTIFICATE-----
