Certificate:
    Data:
        Version: 3 (0x2)
        Serial Number: 1 (0x1)
        Signature Algorithm: sha256WithRSAEncryption
        Issuer: CN=Root Certificate Authority, C=AU/emailAddress=support@security.com, ST=New South Wales, O=Security Organization, OU=Certificate Authority
        Validity
            Not Before: Jan 14 00:09:14 2025 GMT
            Not After : Jan  9 00:09:14 2045 GMT
        Subject: CN=Intermediate Certificate Authority, C=AU/emailAddress=support@security.com, O=Security Organization, ST=New South Wales, OU=Certificate Authority
        Subject Public Key Info:
            Public Key Algorithm: rsaEncryption
                Public-Key: (4096 bit)
                Modulus:
                    00:ae:4f:f7:80:37:38:c8:9e:d7:96:7b:ec:7e:fd:
                    c1:c3:4f:95:dd:7e:7a:e8:1f:9a:59:fb:55:69:c9:
                    08:71:c7:64:07:0c:5c:5c:b1:7d:b4:b2:12:bd:bf:
                    0e:4a:a0:0e:69:a5:1f:7f:ac:74:f1:dc:c6:f9:d7:
                    2d:e2:bb:0e:ef:c8:8a:03:ef:3b:93:a1:f8:33:20:
                    e5:d5:16:c6:fa:1d:2a:7f:f0:6c:c8:a1:9a:d8:29:
                    2e:83:aa:f8:f2:ee:ea:12:c4:ef:05:c8:43:66:15:
                    f1:5e:df:ef:c3:26:18:b1:5d:08:d8:a5:a2:40:bc:
                    93:5d:77:b9:75:ba:6a:6e:f6:8f:e8:fa:78:b1:ae:
                    41:7a:79:bf:fc:4c:e9:4e:a7:63:21:49:e2:16:dd:
                    c9:fe:7e:57:40:df:f2:92:54:a4:47:a3:5a:49:d2:
                    5a:83:74:f7:ea:10:d4:b5:56:26:46:62:6c:20:6b:
                    30:0b:93:8c:4d:09:98:35:59:96:a4:bb:fc:b3:5d:
                    46:a8:40:e5:22:6b:56:e8:4f:21:12:29:48:bc:29:
                    8b:46:a5:d8:c8:0f:d3:00:92:33:cc:68:e0:54:86:
                    ab:c8:fe:70:14:d0:30:c3:2b:e0:68:f3:01:38:9d:
                    7d:3b:f1:ce:5a:a6:58:73:96:54:49:36:fd:3d:81:
                    65:95:8b:ee:e1:dc:94:3f:53:e7:73:25:ba:20:ea:
                    ed:dd:1a:f6:95:25:52:2b:6f:3f:8b:c6:81:bc:77:
                    2b:67:4b:29:1b:f0:ec:e7:4e:8c:82:86:99:77:bf:
                    53:98:04:b7:2c:83:60:d7:92:82:b1:11:49:4f:fe:
                    55:ec:b7:25:75:33:23:74:b3:9d:76:1c:77:b3:78:
                    75:9d:f1:c5:f6:77:d8:a5:71:32:e4:72:fd:15:bc:
                    8a:76:89:0c:e7:87:e6:83:b0:7d:4a:46:a6:52:47:
                    54:ff:34:2b:90:18:cf:68:fe:b1:ab:b6:b5:ca:90:
                    c1:e2:e5:54:8f:e4:33:6b:11:e8:9b:cf:21:9b:c8:
                    36:c4:d9:09:56:fa:b2:10:01:35:78:70:ec:32:1c:
                    18:a8:df:4f:e6:27:b8:3e:ed:56:24:0a:6c:05:59:
                    2b:a7:06:a9:13:b9:d7:ba:15:f1:59:c2:21:dd:7b:
                    3e:9d:09:38:05:47:7c:a2:6e:ad:1f:95:23:c3:54:
                    44:79:16:82:b1:36:2d:03:6b:6a:90:c6:d6:3d:8e:
                    58:b5:d9:81:34:47:9b:4f:32:b7:82:25:7f:c1:20:
                    94:5c:4e:af:c7:25:fc:6a:56:5c:d2:ae:d7:7a:1f:
                    2a:4a:05:69:30:5d:46:7e:d6:37:d7:d2:12:56:ae:
                    9d:fc:9f
                Exponent: 65537 (0x10001)
        X509v3 extensions:
            X509v3 Basic Constraints: critical
                CA:TRUE, pathlen:1
            X509v3 Key Usage: critical
                Certificate Sign, CRL Sign
            Authority Information Access: 
                OCSP - URI:http://ocsp.security.com
            X509v3 CRL Distribution Points: 
                Full Name:
                  URI:http://crl.security.com/root-ca.crl
            X509v3 Subject Key Identifier: 
                4A:5B:FA:1E:0D:84:04:B4:C7:7E:23:42:FF:31:D7:A2:4F:CE:CD:11
            X509v3 Authority Key Identifier: 
                01:05:06:6C:FE:19:83:03:7D:42:6E:06:72:3E:2C:28:DB:38:3C:7D
    Signature Algorithm: sha256WithRSAEncryption
    Signature Value:
        89:6c:e9:f9:b6:85:a1:84:fd:ff:05:f6:12:1b:fb:ef:91:e2:
        4e:80:38:5c:a1:6a:43:a9:d6:48:02:5c:12:a8:dd:95:2d:64:
        0e:3c:f1:4d:0b:03:61:fd:5b:1c:6b:89:7e:c3:8e:d5:e5:55:
        37:ce:15:a3:f7:6b:86:18:88:39:4d:57:a4:7b:b0:58:2f:23:
        03:14:d8:ab:0e:1a:13:c3:cc:6b:ff:8d:8d:fa:ba:5f:e4:e7:
        9a:6a:bb:b1:30:1d:97:f8:95:db:16:df:02:c6:b5:e4:32:bf:
        7a:e3:26:6c:a1:95:74:3b:11:05:7d:95:ea:cb:e2:3a:ab:01:
        d4:0a:4a:8b:7f:2a:39:43:86:ad:c8:35:51:a4:75:92:91:e8:
        f8:9d:16:a7:c4:f4:4c:52:9f:45:aa:4f:24:09:23:c3:92:cd:
        a6:45:56:00:6f:65:eb:6d:fd:ca:23:4f:c3:d9:ec:11:f6:96:
        67:89:68:21:bd:ac:f6:e4:93:6e:bf:44:98:79:04:bf:26:23:
        be:45:a2:12:40:cb:2f:e8:16:fa:1e:72:f8:f1:89:bd:22:e5:
        ad:f3:c7:fd:58:43:e8:07:ea:79:f7:49:33:37:83:b3:80:5f:
        23:d8:81:c8:9f:b4:f9:88:3b:51:cb:dc:80:b1:b9:2e:60:ae:
        de:d3:0d:f6:b7:f9:94:74:34:1a:c9:c7:f9:7a:16:cd:ac:23:
        8b:74:37:0c:a4:a9:7c:e1:90:70:4e:f1:81:7f:88:a9:4a:28:
        e5:01:48:9b:01:2e:c2:c4:6e:dc:e0:17:47:55:21:3e:45:82:
        32:95:02:d1:5f:d2:f2:c2:7b:74:46:8e:5a:5f:2e:48:ed:e5:
        e1:1f:e0:cb:cb:6e:1e:cc:1e:79:d6:00:18:31:98:a9:d3:23:
        a4:78:f8:e8:3c:c7:bd:a1:49:8c:24:b7:f4:74:b9:3b:5e:df:
        5a:0c:59:b4:d3:ed:52:b6:5f:7e:58:84:25:b7:8e:7d:7b:a5:
        a0:04:e5:65:65:ef:4c:75:0f:16:03:b7:ec:e8:e0:e4:23:17:
        00:53:fc:30:ca:c4:a4:80:83:e6:d3:22:d0:67:8c:0d:05:47:
        3c:8c:8f:d2:56:51:3a:43:e8:6b:c2:02:72:bd:ea:6e:f0:8a:
        0b:bc:9c:29:0f:c6:83:1a:d7:84:f5:b9:8c:95:15:f1:9d:c9:
        96:66:96:2a:1e:d2:90:7b:84:8f:7b:13:3d:49:9c:b9:fc:10:
        e4:aa:95:06:39:09:f3:72:6e:11:df:4a:f2:46:12:b7:d7:2b:
        86:b5:60:d6:2c:25:74:02:cf:4b:16:1c:86:c2:ef:5b:e3:60:
        52:04:78:bb:b6:c6:91:aa
-----BEGIN CERTIFICATE-----
MIIGuzCCBKOgAwIBAgIBATANBgkqhkiG9w0BAQsFADCBsTEjMCEGA1UEAwwaUm9v
dCBDZXJ0aWZpY2F0ZSBBdXRob3JpdHkxCzAJBgNVBAYTAkFVMSMwIQYJKoZIhvcN
AQkBFhRzdXBwb3J0QHNlY3VyaXR5LmNvbTEYMBYGA1UECAwPTmV3IFNvdXRoIFdh
bGVzMR4wHAYDVQQKDBVTZWN1cml0eSBPcmdhbml6YXRpb24xHjAcBgNVBAsMFUNl
cnRpZmljYXRlIEF1dGhvcml0eTAeFw0yNTAxMTQwMDA5MTRaFw00NTAxMDkwMDA5
MTRaMIG5MSswKQYDVQQDDCJJbnRlcm1lZGlhdGUgQ2VydGlmaWNhdGUgQXV0aG9y
aXR5MQswCQYDVQQGEwJBVTEjMCEGCSqGSIb3DQEJARYUc3VwcG9ydEBzZWN1cml0
eS5jb20xHjAcBgNVBAoMFVNlY3VyaXR5IE9yZ2FuaXphdGlvbjEYMBYGA1UECAwP
TmV3IFNvdXRoIFdhbGVzMR4wHAYDVQQLDBVDZXJ0aWZpY2F0ZSBBdXRob3JpdHkw
ggIiMA0GCSqGSIb3DQEBAQUAA4ICDwAwggIKAoICAQCuT/eANzjInteWe+x+/cHD
T5XdfnroH5pZ+1VpyQhxx2QHDFxcsX20shK9vw5KoA5ppR9/rHTx3Mb51y3iuw7v
yIoD7zuTofgzIOXVFsb6HSp/8GzIoZrYKS6Dqvjy7uoSxO8FyENmFfFe3+/DJhix
XQjYpaJAvJNdd7l1umpu9o/o+nixrkF6eb/8TOlOp2MhSeIW3cn+fldA3/KSVKRH
o1pJ0lqDdPfqENS1ViZGYmwgazALk4xNCZg1WZaku/yzXUaoQOUia1boTyESKUi8
KYtGpdjID9MAkjPMaOBUhqvI/nAU0DDDK+Bo8wE4nX078c5aplhzllRJNv09gWWV
i+7h3JQ/U+dzJbog6u3dGvaVJVIrbz+LxoG8dytnSykb8OznToyChpl3v1OYBLcs
g2DXkoKxEUlP/lXstyV1MyN0s512HHezeHWd8cX2d9ilcTLkcv0VvIp2iQznh+aD
sH1KRqZSR1T/NCuQGM9o/rGrtrXKkMHi5VSP5DNrEeibzyGbyDbE2QlW+rIQATV4
cOwyHBio30/mJ7g+7VYkCmwFWSunBqkTude6FfFZwiHdez6dCTgFR3yibq0flSPD
VER5FoKxNi0Da2qQxtY9jli12YE0R5tPMreCJX/BIJRcTq/HJfxqVlzSrtd6HypK
BWkwXUZ+1jfX0hJWrp38nwIDAQABo4HTMIHQMBIGA1UdEwEB/wQIMAYBAf8CAQEw
DgYDVR0PAQH/BAQDAgEGMDQGCCsGAQUFBwEBBCgwJjAkBggrBgEFBQcwAYYYaHR0
cDovL29jc3Auc2VjdXJpdHkuY29tMDQGA1UdHwQtMCswKaAnoCWGI2h0dHA6Ly9j
cmwuc2VjdXJpdHkuY29tL3Jvb3QtY2EuY3JsMB0GA1UdDgQWBBRKW/oeDYQEtMd+
I0L/MdeiT87NETAfBgNVHSMEGDAWgBQBBQZs/hmDA31CbgZyPiwo2zg8fTANBgkq
hkiG9w0BAQsFAAOCAgEAiWzp+baFoYT9/wX2Ehv775HiToA4XKFqQ6nWSAJcEqjd
lS1kDjzxTQsDYf1bHGuJfsOO1eVVN84Vo/drhhiIOU1XpHuwWC8jAxTYqw4aE8PM
a/+Njfq6X+Tnmmq7sTAdl/iV2xbfAsa15DK/euMmbKGVdDsRBX2V6sviOqsB1ApK
i38qOUOGrcg1UaR1kpHo+J0Wp8T0TFKfRapPJAkjw5LNpkVWAG9l6239yiNPw9ns
EfaWZ4loIb2s9uSTbr9EmHkEvyYjvkWiEkDLL+gW+h5y+PGJvSLlrfPH/VhD6Afq
efdJMzeDs4BfI9iByJ+0+Yg7UcvcgLG5LmCu3tMN9rf5lHQ0GsnH+XoWzawji3Q3
DKSpfOGQcE7xgX+IqUoo5QFImwEuwsRu3OAXR1UhPkWCMpUC0V/S8sJ7dEaOWl8u
SO3l4R/gy8tuHsweedYAGDGYqdMjpHj46DzHvaFJjCS39HS5O17fWgxZtNPtUrZf
fliEJbeOfXuloATlZWXvTHUPFgO37Ojg5CMXAFP8MMrEpICD5tMi0GeMDQVHPIyP
0lZROkPoa8ICcr3qbvCKC7ycKQ/GgxrXhPW5jJUV8Z3JlmaWKh7SkHuEj3sTPUmc
ufwQ5KqVBjkJ83JuEd9K8kYSt9crhrVg1iwldALPSxYchsLvW+NgUgR4u7bGkao=
-----END CERTIFICATE-----
