Certificate:
    Data:
        Version: 3 (0x2)
        Serial Number: 2 (0x2)
        Signature Algorithm: sha256WithRSAEncryption
        Issuer: CN=Intermediate Certificate Authority, C=AU/emailAddress=support@security.com, O=Security Organization, ST=New South Wales, OU=Certificate Authority
        Validity
            Not Before: Jan 15 00:18:44 2025 GMT
            Not After : Jan 15 00:18:44 2027 GMT
        Subject: CN=vault_agent, C=AU/emailAddress=support@crazy.com, O=Crazy Org, ST=New South Wales, OU=Development
        Subject Public Key Info:
            Public Key Algorithm: rsaEncryption
                Public-Key: (4096 bit)
                Modulus:
                    00:e1:75:d7:82:4d:39:ee:4e:54:d9:c2:91:ac:91:
                    bb:df:1c:f3:40:50:03:d5:88:64:f2:0c:a6:07:43:
                    79:04:75:c7:eb:0b:86:d3:e3:a4:f4:a2:cb:0c:1a:
                    61:75:ad:54:05:71:a4:3c:44:cb:51:78:2b:08:8b:
                    5b:b2:7a:6b:92:f6:2a:97:8a:3c:97:0a:78:21:22:
                    cb:36:6e:60:9a:6c:84:d0:ac:e0:fb:e6:3d:f5:e0:
                    2f:fb:0f:55:a5:6e:4d:6c:f3:de:3a:75:c9:33:1a:
                    25:73:5d:a4:f9:28:e7:10:3b:32:7c:e1:c8:11:db:
                    f5:a7:36:3e:f0:54:f9:93:63:0c:0f:b5:14:11:d4:
                    f4:32:c8:d1:f4:04:60:25:ca:58:b5:14:19:54:4f:
                    ad:82:f4:f1:de:9b:ff:04:26:b9:17:37:2e:d3:b7:
                    83:97:15:56:7c:31:ec:24:fc:ff:a1:c4:19:84:6b:
                    06:37:f5:57:74:71:37:7d:00:cc:fa:87:dd:3e:1c:
                    ff:a2:1d:29:2f:c4:db:ce:04:67:c1:8b:61:ad:00:
                    20:07:78:04:b1:3b:86:6e:36:47:d5:b8:79:98:ec:
                    c7:78:82:c3:60:ec:8b:eb:cb:b8:55:6e:c1:71:db:
                    90:36:d6:03:1a:89:35:51:ad:a9:d5:61:c7:9e:b9:
                    23:e9:25:45:c8:93:ea:f1:e4:90:ac:9d:fe:48:5a:
                    b0:48:ab:a8:e5:72:0d:96:02:ff:bc:db:c0:f3:60:
                    b7:25:c2:2d:de:66:54:e7:45:eb:af:91:5c:f7:df:
                    38:9f:58:b7:db:d8:f4:df:cd:61:ce:bf:3b:c1:22:
                    19:05:48:cb:6b:8f:5f:13:f9:4d:ab:62:c8:0b:6d:
                    89:1e:c1:31:36:e0:0f:38:3f:82:7e:25:f3:84:3f:
                    66:3c:40:1d:3e:c2:10:3d:d9:fc:f1:fe:a9:d5:6f:
                    34:e3:5d:2c:ba:02:a5:6a:62:64:94:fd:e7:e3:cf:
                    d4:cb:fc:5f:d1:03:44:21:d3:6f:86:06:f4:56:84:
                    e8:72:1c:37:86:41:1d:37:26:e1:ef:9d:a4:d5:b8:
                    50:97:ac:d9:9d:81:69:dd:ce:a4:36:87:d6:5f:29:
                    38:24:c3:04:5f:c2:67:87:7d:c9:1c:b7:92:2a:25:
                    41:33:83:fd:4f:94:07:77:50:b3:be:78:8d:3a:cb:
                    03:92:ef:f2:e2:6e:c9:60:e4:87:99:0e:f0:91:60:
                    c1:65:41:36:e0:78:8f:33:1c:f4:04:bd:0e:e4:76:
                    5f:f3:84:9d:d7:9a:e6:c0:2b:92:9f:b1:e9:1e:37:
                    26:48:a2:3f:47:00:c8:27:5e:cb:a7:28:a3:fc:0b:
                    cf:59:a5
                Exponent: 65537 (0x10001)
        X509v3 extensions:
            X509v3 Basic Constraints: 
                CA:FALSE
            X509v3 Key Usage: 
                Digital Signature, Key Encipherment
            X509v3 Extended Key Usage: 
                TLS Web Server Authentication, TLS Web Client Authentication
            X509v3 Subject Key Identifier: 
                59:FF:AB:F0:F4:03:51:01:A0:E8:C4:BB:57:21:F4:06:7C:18:96:68
            X509v3 Authority Key Identifier: 
                E6:67:DF:15:DC:E8:35:65:3E:2E:B9:24:E0:D9:12:57:63:0B:95:50
            X509v3 Subject Alternative Name: 
                DNS:localhost, DNS:vault_agent, IP Address:127.0.0.1
    Signature Algorithm: sha256WithRSAEncryption
    Signature Value:
        56:f6:9b:0d:46:ee:cc:30:e7:34:71:a0:52:a1:fa:17:40:db:
        b3:c0:b0:e7:be:69:d8:e6:90:f1:b9:70:d0:9a:d3:f3:a3:a7:
        4b:78:9a:b4:1a:1c:60:df:d3:42:de:3f:ea:8f:31:27:d7:cc:
        c0:c2:d5:45:0f:d3:8d:a6:eb:8b:8d:a4:dc:c3:19:16:d2:b4:
        76:74:f2:59:66:a8:b6:a8:7b:c7:43:30:67:d6:a0:56:12:48:
        cc:b6:86:d6:1e:6e:a7:2a:d9:a3:06:52:09:4f:7f:64:d3:44:
        bb:6f:34:c6:3c:fa:3d:89:9b:85:5b:c4:de:8d:a6:52:2c:9d:
        5b:b4:b6:51:bc:70:e0:d5:9a:f0:bd:1d:cd:6f:61:15:d8:ad:
        17:f5:31:0d:05:9f:17:a2:ed:29:e8:18:f1:10:32:0a:3f:0d:
        d7:37:1a:e1:9e:4f:3d:38:c7:88:b4:a0:d2:49:1d:6d:dd:d9:
        c1:c6:95:13:fe:a9:3d:74:09:20:48:99:79:8a:ab:b4:23:c9:
        85:de:b2:96:ab:5e:b3:0c:81:57:9a:74:36:f4:9f:2f:03:b0:
        56:42:c5:c4:90:47:40:1c:33:ce:34:40:5c:ed:5e:f6:5f:f6:
        eb:56:05:51:e8:e4:28:30:3d:0f:95:fa:65:d0:53:15:d4:b5:
        ed:03:0c:7d:73:fc:fe:7e:70:e0:38:9a:34:24:cc:6a:af:c8:
        ea:ac:fe:d5:92:97:44:15:f1:44:32:d4:cf:6d:c9:57:5f:31:
        0a:ba:df:29:5a:b6:67:39:bf:6a:2f:3a:ef:b3:e7:6d:47:9d:
        17:09:31:6b:32:28:be:1c:ff:c6:66:4f:a6:f9:7a:44:f2:bb:
        79:87:f1:6d:ac:19:f3:e7:8a:3c:c1:71:34:49:21:6e:a6:89:
        02:2b:b7:ca:3c:40:8a:d5:e8:6c:52:dc:b0:d5:0a:4c:b0:0e:
        51:ff:2f:21:28:c0:61:05:b6:9d:ed:85:a9:20:9d:5e:40:a8:
        88:51:e0:7e:62:7c:d1:b2:2d:db:75:3f:02:30:eb:2a:71:29:
        f6:01:3f:29:7d:09:fb:9d:9c:f6:a3:ba:93:ca:2a:6d:a6:63:
        5e:53:93:25:65:84:06:d1:a7:61:9a:6f:e8:b1:4f:0d:5d:1f:
        54:08:18:e3:5a:ee:ee:42:67:b5:df:01:bd:56:15:9f:0b:89:
        cc:c1:00:20:81:fa:87:9f:0c:cc:31:dc:8d:f1:82:3f:e8:c5:
        24:6b:25:78:57:a4:7f:9d:4b:96:ca:d7:d6:6b:c5:4a:65:75:
        51:0b:49:62:7b:c6:82:93:b0:fc:e1:9f:46:03:6d:87:f9:8b:
        46:a0:dd:35:ad:76:a4:e0
-----BEGIN CERTIFICATE-----
MIIGYzCCBEugAwIBAgIBAjANBgkqhkiG9w0BAQsFADCBuTErMCkGA1UEAwwiSW50
ZXJtZWRpYXRlIENlcnRpZmljYXRlIEF1dGhvcml0eTELMAkGA1UEBhMCQVUxIzAh
BgkqhkiG9w0BCQEWFHN1cHBvcnRAc2VjdXJpdHkuY29tMR4wHAYDVQQKDBVTZWN1
cml0eSBPcmdhbml6YXRpb24xGDAWBgNVBAgMD05ldyBTb3V0aCBXYWxlczEeMBwG
A1UECwwVQ2VydGlmaWNhdGUgQXV0aG9yaXR5MB4XDTI1MDExNTAwMTg0NFoXDTI3
MDExNTAwMTg0NFowgYkxFDASBgNVBAMMC3ZhdWx0X2FnZW50MQswCQYDVQQGEwJB
VTEgMB4GCSqGSIb3DQEJARYRc3VwcG9ydEBjcmF6eS5jb20xEjAQBgNVBAoMCUNy
YXp5IE9yZzEYMBYGA1UECAwPTmV3IFNvdXRoIFdhbGVzMRQwEgYDVQQLDAtEZXZl
bG9wbWVudDCCAiIwDQYJKoZIhvcNAQEBBQADggIPADCCAgoCggIBAOF114JNOe5O
VNnCkayRu98c80BQA9WIZPIMpgdDeQR1x+sLhtPjpPSiywwaYXWtVAVxpDxEy1F4
KwiLW7J6a5L2KpeKPJcKeCEiyzZuYJpshNCs4PvmPfXgL/sPVaVuTWzz3jp1yTMa
JXNdpPko5xA7MnzhyBHb9ac2PvBU+ZNjDA+1FBHU9DLI0fQEYCXKWLUUGVRPrYL0
8d6b/wQmuRc3LtO3g5cVVnwx7CT8/6HEGYRrBjf1V3RxN30AzPqH3T4c/6IdKS/E
284EZ8GLYa0AIAd4BLE7hm42R9W4eZjsx3iCw2Dsi+vLuFVuwXHbkDbWAxqJNVGt
qdVhx565I+klRciT6vHkkKyd/khasEirqOVyDZYC/7zbwPNgtyXCLd5mVOdF66+R
XPffOJ9Yt9vY9N/NYc6/O8EiGQVIy2uPXxP5TatiyAttiR7BMTbgDzg/gn4l84Q/
ZjxAHT7CED3Z/PH+qdVvNONdLLoCpWpiZJT95+PP1Mv8X9EDRCHTb4YG9FaE6HIc
N4ZBHTcm4e+dpNW4UJes2Z2Bad3OpDaH1l8pOCTDBF/CZ4d9yRy3kiolQTOD/U+U
B3dQs754jTrLA5Lv8uJuyWDkh5kO8JFgwWVBNuB4jzMc9AS9DuR2X/OEndea5sAr
kp+x6R43JkiiP0cAyCdey6coo/wLz1mlAgMBAAGjgaMwgaAwCQYDVR0TBAIwADAL
BgNVHQ8EBAMCBaAwHQYDVR0lBBYwFAYIKwYBBQUHAwEGCCsGAQUFBwMCMB0GA1Ud
DgQWBBRZ/6vw9ANRAaDoxLtXIfQGfBiWaDAfBgNVHSMEGDAWgBTmZ98V3Og1ZT4u
uSTg2RJXYwuVUDAnBgNVHREEIDAegglsb2NhbGhvc3SCC3ZhdWx0X2FnZW50hwR/
AAABMA0GCSqGSIb3DQEBCwUAA4ICAQBW9psNRu7MMOc0caBSofoXQNuzwLDnvmnY
5pDxuXDQmtPzo6dLeJq0Ghxg39NC3j/qjzEn18zAwtVFD9ONpuuLjaTcwxkW0rR2
dPJZZqi2qHvHQzBn1qBWEkjMtobWHm6nKtmjBlIJT39k00S7bzTGPPo9iZuFW8Te
jaZSLJ1btLZRvHDg1ZrwvR3Nb2EV2K0X9TENBZ8Xou0p6BjxEDIKPw3XNxrhnk89
OMeItKDSSR1t3dnBxpUT/qk9dAkgSJl5iqu0I8mF3rKWq16zDIFXmnQ29J8vA7BW
QsXEkEdAHDPONEBc7V72X/brVgVR6OQoMD0Plfpl0FMV1LXtAwx9c/z+fnDgOJo0
JMxqr8jqrP7VkpdEFfFEMtTPbclXXzEKut8pWrZnOb9qLzrvs+dtR50XCTFrMii+
HP/GZk+m+XpE8rt5h/FtrBnz54o8wXE0SSFupokCK7fKPECK1ehsUtyw1QpMsA5R
/y8hKMBhBbad7YWpIJ1eQKiIUeB+YnzRsi3bdT8CMOsqcSn2AT8pfQn7nZz2o7qT
yiptpmNeU5MlZYQG0adhmm/osU8NXR9UCBjjWu7uQme13wG9VhWfC4nMwQAggfqH
nwzMMdyN8YI/6MUkayV4V6R/nUuWytfWa8VKZXVRC0lie8aCk7D84Z9GA22H+YtG
oN01rXak4A==
-----END CERTIFICATE-----
