Certificate:
    Data:
        Version: 3 (0x2)
        Serial Number: 1 (0x1)
        Signature Algorithm: sha256WithRSAEncryption
        Issuer: CN=My Root Certificate Authority, ST=NSW, C=AU/emailAddress=support@example.com, O=Example Org, OU=Development
        Validity
            Not Before: Jan 10 08:00:48 2025 GMT
            Not After : Jan  9 08:00:48 2030 GMT
        Subject: CN=localhost, ST=NSW, C=AU/emailAddress=support@example.com, O=Example Org, OU=Development
        Subject Public Key Info:
            Public Key Algorithm: rsaEncryption
                Public-Key: (2048 bit)
                Modulus:
                    00:e6:00:b0:94:92:05:b8:4c:26:a0:ff:fa:ae:81:
                    f4:a4:75:f5:88:ae:0c:ef:5c:4a:a2:be:dc:8b:a7:
                    d9:78:81:bf:02:d2:ba:80:63:f0:06:66:dd:d9:8a:
                    e8:03:5a:9d:b3:b9:8e:ef:1b:45:5d:f4:c3:6e:fa:
                    ab:57:7d:63:63:4d:32:37:05:ea:49:de:d8:7d:44:
                    90:59:1c:1e:60:c7:ed:45:6d:9d:9d:8c:20:f5:91:
                    fe:ab:8b:40:76:2c:b8:42:e8:dd:a3:1b:62:b0:d9:
                    b8:09:db:00:36:07:f3:8a:cf:50:b2:90:f0:28:30:
                    c7:e4:7f:bf:fb:60:e8:90:97:8a:dc:5b:72:25:f0:
                    76:7f:1e:45:b5:7c:af:fd:7c:b8:6b:a9:0d:03:f2:
                    dc:f3:45:53:82:a5:52:43:c0:fb:10:d1:04:25:fe:
                    fe:97:ba:4a:c3:45:25:2d:a8:01:84:cd:a7:a6:0c:
                    3d:2b:bc:3f:84:17:70:4a:9c:11:62:8c:b9:b4:fb:
                    b6:ab:d4:e5:9a:ac:93:f8:4f:e0:a3:1e:ee:7c:00:
                    24:40:ce:25:0c:ab:b4:1f:c0:fa:a8:08:bd:f1:63:
                    59:29:51:ed:f1:67:28:df:78:5a:50:03:d8:92:c5:
                    22:c7:10:71:8b:17:f5:5f:e6:9e:fd:10:86:17:01:
                    bf:f9
                Exponent: 65537 (0x10001)
        X509v3 extensions:
            X509v3 Basic Constraints: 
                CA:FALSE
            X509v3 Key Usage: 
                Digital Signature, Non Repudiation, Key Encipherment
            X509v3 Subject Alternative Name: 
                DNS:localhost, DNS:vault_server, IP Address:127.0.0.1, IP Address:172.18.0.1
            X509v3 Subject Key Identifier: 
                D0:7D:93:D3:95:37:15:92:F6:29:1B:1D:06:2E:5F:6C:63:F1:D8:F6
            X509v3 Authority Key Identifier: 
                0D:75:5B:5A:68:82:F4:B3:13:77:BA:0B:90:89:E0:D9:CF:56:B1:E4
    Signature Algorithm: sha256WithRSAEncryption
    Signature Value:
        34:db:84:df:7f:2f:e4:13:5f:e9:66:33:f1:74:24:3a:1b:0c:
        39:a1:43:33:71:30:a7:5b:c0:b2:48:ba:45:ef:33:97:60:55:
        57:c4:26:85:ae:fc:19:e5:85:50:68:4a:03:2b:6e:b2:ff:c0:
        8f:9d:6c:9a:78:e9:6b:45:41:e6:1e:98:52:cd:41:fd:1d:cb:
        d0:7b:e5:78:98:b2:01:a9:ac:2d:d1:f3:f4:3e:79:19:4a:3c:
        da:ee:fc:cc:d8:c7:d9:3b:a4:8d:79:12:1c:41:30:f6:cf:b0:
        0d:44:dc:3d:07:cd:3b:52:c6:cf:ce:26:56:51:a4:da:3f:4b:
        7c:56:3c:55:1b:1b:03:9e:0d:ed:37:88:73:22:b3:27:57:be:
        c6:af:61:47:ca:6d:40:96:58:09:b6:27:f8:e3:f3:2f:8d:a3:
        82:4a:ee:b2:b9:82:b1:ed:45:96:2e:c1:42:5e:4f:d0:4e:a1:
        64:56:29:8c:a5:21:11:15:2f:5b:49:ec:a5:f5:28:52:42:93:
        34:66:fb:e4:09:e9:11:15:e6:7c:a7:34:34:da:9f:f0:b3:88:
        be:fd:be:ae:d0:54:18:12:f3:ae:3c:58:05:36:77:7e:ea:05:
        89:d3:c6:ce:4d:8c:34:22:5e:ed:0f:09:33:49:c7:18:88:08:
        a2:cd:52:20
-----BEGIN CERTIFICATE-----
MIIEGjCCAwKgAwIBAgIBATANBgkqhkiG9w0BAQsFADCBkzEmMCQGA1UEAwwdTXkg
Um9vdCBDZXJ0aWZpY2F0ZSBBdXRob3JpdHkxDDAKBgNVBAgMA05TVzELMAkGA1UE
BhMCQVUxIjAgBgkqhkiG9w0BCQEWE3N1cHBvcnRAZXhhbXBsZS5jb20xFDASBgNV
BAoMC0V4YW1wbGUgT3JnMRQwEgYDVQQLDAtEZXZlbG9wbWVudDAeFw0yNTAxMTAw
ODAwNDhaFw0zMDAxMDkwODAwNDhaMH8xEjAQBgNVBAMMCWxvY2FsaG9zdDEMMAoG
A1UECAwDTlNXMQswCQYDVQQGEwJBVTEiMCAGCSqGSIb3DQEJARYTc3VwcG9ydEBl
eGFtcGxlLmNvbTEUMBIGA1UECgwLRXhhbXBsZSBPcmcxFDASBgNVBAsMC0RldmVs
b3BtZW50MIIBIjANBgkqhkiG9w0BAQEFAAOCAQ8AMIIBCgKCAQEA5gCwlJIFuEwm
oP/6roH0pHX1iK4M71xKor7ci6fZeIG/AtK6gGPwBmbd2YroA1qds7mO7xtFXfTD
bvqrV31jY00yNwXqSd7YfUSQWRweYMftRW2dnYwg9ZH+q4tAdiy4QujdoxtisNm4
CdsANgfzis9QspDwKDDH5H+/+2DokJeK3FtyJfB2fx5FtXyv/Xy4a6kNA/Lc80VT
gqVSQ8D7ENEEJf7+l7pKw0UlLagBhM2npgw9K7w/hBdwSpwRYoy5tPu2q9TlmqyT
+E/gox7ufAAkQM4lDKu0H8D6qAi98WNZKVHt8Wco33haUAPYksUixxBxixf1X+ae
/RCGFwG/+QIDAQABo4GLMIGIMAkGA1UdEwQCMAAwCwYDVR0PBAQDAgXgMC4GA1Ud
EQQnMCWCCWxvY2FsaG9zdIIMdmF1bHRfc2VydmVyhwR/AAABhwSsEgABMB0GA1Ud
DgQWBBTQfZPTlTcVkvYpGx0GLl9sY/HY9jAfBgNVHSMEGDAWgBQNdVtaaIL0sxN3
uguQieDZz1ax5DANBgkqhkiG9w0BAQsFAAOCAQEANNuE338v5BNf6WYz8XQkOhsM
OaFDM3Ewp1vAski6Re8zl2BVV8Qmha78GeWFUGhKAytusv/Aj51smnjpa0VB5h6Y
Us1B/R3L0HvleJiyAamsLdHz9D55GUo82u78zNjH2TukjXkSHEEw9s+wDUTcPQfN
O1LGz84mVlGk2j9LfFY8VRsbA54N7TeIcyKzJ1e+xq9hR8ptQJZYCbYn+OPzL42j
gkrusrmCse1Fli7BQl5P0E6hZFYpjKUhERUvW0nspfUoUkKTNGb75AnpERXmfKc0
NNqf8LOIvv2+rtBUGBLzrjxYBTZ3fuoFidPGzk2MNCJe7Q8JM0nHGIgIos1SIA==
-----END CERTIFICATE-----
-----BEGIN CERTIFICATE-----
MIID5TCCAs2gAwIBAgIUaeVAEEGTJgI/tig7VIpexTrPTTEwDQYJKoZIhvcNAQEL
BQAwgZMxJjAkBgNVBAMMHU15IFJvb3QgQ2VydGlmaWNhdGUgQXV0aG9yaXR5MQww
CgYDVQQIDANOU1cxCzAJBgNVBAYTAkFVMSIwIAYJKoZIhvcNAQkBFhNzdXBwb3J0
QGV4YW1wbGUuY29tMRQwEgYDVQQKDAtFeGFtcGxlIE9yZzEUMBIGA1UECwwLRGV2
ZWxvcG1lbnQwHhcNMjUwMTEwMDgwMDQ2WhcNMzAwMTA5MDgwMDQ2WjCBkzEmMCQG
A1UEAwwdTXkgUm9vdCBDZXJ0aWZpY2F0ZSBBdXRob3JpdHkxDDAKBgNVBAgMA05T
VzELMAkGA1UEBhMCQVUxIjAgBgkqhkiG9w0BCQEWE3N1cHBvcnRAZXhhbXBsZS5j
b20xFDASBgNVBAoMC0V4YW1wbGUgT3JnMRQwEgYDVQQLDAtEZXZlbG9wbWVudDCC
ASIwDQYJKoZIhvcNAQEBBQADggEPADCCAQoCggEBAMBQGsx+hq/z5ksQe/OldyTt
Xth2XpPxhUjCI8pzsb5BdeorD/ZGpZZVihC+TU1dl+rQJLMA0zSbBssXcklYSwTC
1QekJuIliF4ujagBXVEG0KckTSHIoQLvWxBl/y+BRBdEZAkI6BKQQeipLM9TrixF
jU2KwnR+cFTHtwcXp33P/18MnixBAViVYefCrdGWxU1db1/shW3qB/fixkek9tjn
+BO/ku18Xb33N+2e3iyQ2DwS3LKERf5GzO8QJ/0HPbjn5uLz2gj155hHJ5CDpF9+
eMTX3zy2DJMF9i3cBbBMsUfTApJNDosqlpuHwhrag1vtD1RHQ/vNrMbwKRZ5uG0C
AwEAAaMvMC0wDAYDVR0TBAUwAwEB/zAdBgNVHQ4EFgQUDXVbWmiC9LMTd7oLkIng
2c9WseQwDQYJKoZIhvcNAQELBQADggEBAK9oxDUiwfZiEWndjpTRlZK5hLeKgs+B
7SH85A+ToxyZ7vR8xAcpQ4ShwuAjKWTn5GnpbnvekFjFtuDWDb8Aw2cZdRh1b+yK
UAqvpI1EeRfcP0b0ZB/CjrWAVFeYl7TLZTwRPaQxiVoOhRl6lxDR0V5Eoojzg92S
PtKxrCl2vMQ6N3yxTvCBgamIvlKZ0huhqr+tA7AUAwvTM460XM3/mdPuamRVw+Cm
zAD+gXgBRXjGJC/Ep+iu0FK9Ub7rsipc+3OK8arnvBUv+cNtVZ0X4kzYFYsdFDz9
9wqJI7rR5Gtj7veEQTLHhR2JsOSPl5UI/xsQFPGpASsVg0LR3wfqmTw=
-----END CERTIFICATE-----
