Certificate:
    Data:
        Version: 3 (0x2)
        Serial Number: 1 (0x1)
        Signature Algorithm: sha256WithRSAEncryption
        Issuer: CN=My Root Certificate Authority, ST=NSW, C=AU/emailAddress=support@example.com, O=Example Org, OU=Development
        Validity
            Not Before: Jan 10 10:22:38 2025 GMT
            Not After : Jan  9 10:22:38 2030 GMT
        Subject: CN=localhost, ST=New South Wales, C=AU/emailAddress=support@crazy.com, O=Crazy Org, OU=Development
        Subject Public Key Info:
            Public Key Algorithm: rsaEncryption
                Public-Key: (4096 bit)
                Modulus:
                    00:c5:23:ce:c7:69:f4:ee:de:a1:34:e6:49:2c:00:
                    cd:99:d8:39:2b:15:30:61:a9:76:41:19:b0:40:77:
                    7a:7a:33:fb:3b:1c:28:82:cd:74:f2:7e:f5:d5:40:
                    a7:2a:ca:38:de:5f:88:41:d4:73:3d:11:a7:72:45:
                    8d:61:52:34:96:a8:ad:a7:86:26:a1:e8:af:be:41:
                    65:37:1a:51:2b:d1:c0:05:a1:52:3f:cc:6e:c9:01:
                    0f:8d:39:5a:02:08:d4:e0:c0:00:04:34:23:43:9a:
                    f2:fd:48:30:b7:c1:aa:59:9f:a1:c7:c8:b9:25:13:
                    03:cb:81:46:3a:9a:2e:f7:81:b7:cb:e1:0c:e4:02:
                    12:1e:76:7b:7c:86:f9:fb:68:22:94:92:2b:ac:16:
                    1c:9f:bc:7b:15:d2:a7:45:bf:97:8d:47:f9:18:a9:
                    b5:ee:02:8a:fa:fc:a2:b3:af:12:8b:b0:4c:10:c8:
                    a7:68:ea:d9:36:f3:9a:99:ad:eb:f8:0d:eb:0e:ea:
                    fc:0a:e0:c5:71:f9:d5:53:e4:6d:ca:1d:78:74:11:
                    ae:ad:a4:63:3d:37:4f:d3:ee:3d:da:27:ef:ad:4a:
                    61:c2:b3:9d:0f:f5:ef:aa:e8:35:58:c0:bb:59:d4:
                    73:7a:0a:0d:2a:34:46:a5:29:e6:74:be:6c:bf:33:
                    88:01:6e:2f:1c:c4:05:ac:80:0f:31:88:98:63:fc:
                    07:ef:14:c5:9e:e7:24:57:75:36:c7:b8:ed:2b:a1:
                    05:01:99:17:f6:e1:79:de:42:ec:ac:b5:0a:d9:9a:
                    5f:19:f5:01:fe:12:d4:53:77:64:50:26:39:d0:7d:
                    40:b5:ca:d8:b4:c1:46:d4:bf:21:a1:c3:f4:ec:c2:
                    e5:96:12:01:92:86:bc:89:d3:84:38:50:29:73:1a:
                    62:d0:23:48:f7:de:82:09:e3:f6:c9:b1:78:2e:a8:
                    a9:67:a1:36:b6:1f:13:2b:59:bb:6f:fe:5a:c3:54:
                    15:0c:7b:b8:1a:46:a2:01:3b:44:c5:70:f2:b9:d6:
                    0f:f8:42:93:c3:18:9f:18:50:f5:e0:f6:17:3c:45:
                    b4:5d:0c:d7:b5:26:70:3d:35:0c:be:69:29:6d:e8:
                    fc:bc:3c:72:e8:ed:7d:9d:2c:ee:41:c2:67:63:5c:
                    9b:75:b9:63:2c:5f:d2:af:38:d1:c0:aa:89:0b:0e:
                    11:03:4e:26:35:9c:3f:4f:65:cd:cc:82:6c:e0:5a:
                    61:70:44:3e:03:f0:67:08:9c:62:c7:71:cb:bd:36:
                    8b:24:48:72:21:f7:d4:f2:59:fe:09:b5:e4:36:95:
                    d2:32:c9:92:53:39:31:e3:f9:ca:ff:ce:93:15:55:
                    73:47:fb
                Exponent: 65537 (0x10001)
        X509v3 extensions:
            X509v3 Basic Constraints: 
                CA:FALSE
            X509v3 Key Usage: 
                Digital Signature, Non Repudiation, Key Encipherment
            X509v3 Extended Key Usage: 
                TLS Web Server Authentication, TLS Web Client Authentication
            X509v3 Subject Alternative Name: 
                DNS:localhost, DNS:vault_server, IP Address:127.0.0.1, IP Address:172.18.0.1
            X509v3 Subject Key Identifier: 
                70:72:76:BF:CF:3B:DA:DF:5E:BE:DC:18:EC:32:4B:CB:E5:7E:F4:7B
            X509v3 Authority Key Identifier: 
                AF:44:A8:32:10:48:34:B1:A6:93:F4:F4:AE:8F:57:1F:79:DF:90:C6
    Signature Algorithm: sha256WithRSAEncryption
    Signature Value:
        62:8f:5e:3f:c4:55:e4:7c:a6:6c:9a:c2:7f:10:74:ec:75:c3:
        9d:b4:98:5a:b7:4a:55:a5:a1:68:c0:5e:aa:5d:aa:33:69:00:
        dd:f7:43:64:78:ae:55:c5:bc:2e:5a:bc:a0:65:e4:80:b1:cf:
        64:5b:a8:a4:16:d6:99:c5:a1:2a:eb:44:0b:ec:ab:91:96:38:
        d7:cd:e3:6d:ba:04:0a:31:bc:7e:65:90:72:90:03:be:2c:29:
        85:d1:68:37:e8:1a:0c:43:d3:95:25:ca:fd:99:e6:62:93:11:
        19:9a:fb:4e:ae:9a:63:92:cb:c3:ed:9c:bb:81:ad:2d:46:1a:
        39:33:6b:47:3f:a6:33:6d:bb:ab:b7:0c:8e:ff:8f:90:4f:d7:
        33:16:ec:ad:37:de:9f:82:ba:16:70:4c:f8:cb:e5:b6:0a:ec:
        2e:42:ef:94:6d:1a:bc:5e:3e:95:13:19:0f:c8:13:7d:c7:f3:
        3f:f5:ec:7d:c0:5b:28:57:a7:67:e9:c8:16:3e:49:f0:00:fd:
        1d:13:52:7d:c9:15:27:e3:d6:4c:c3:8b:24:20:0f:19:ad:66:
        2d:41:6f:cc:38:51:06:9e:30:e8:56:aa:b7:bb:84:44:83:77:
        4a:46:6f:54:b0:e7:d0:5b:2a:b4:b3:e3:fa:58:cc:d7:e3:e9:
        61:57:86:25:f1:9d:84:0d:e8:b2:1d:fb:d1:9e:82:5d:27:bc:
        ba:75:57:25:c1:f7:ae:b1:9c:11:8c:c3:92:14:70:86:a8:0d:
        c3:2c:86:c8:82:23:2f:18:00:ea:17:08:9d:03:01:f3:64:ec:
        af:06:aa:cc:43:8d:69:2d:c2:07:07:6d:0c:15:41:43:bb:9b:
        12:aa:1f:7f:37:b1:b5:4d:e1:cb:c0:56:5f:2d:8a:a0:93:f2:
        e9:41:bb:d9:d5:bb:28:fb:ec:e5:c4:01:29:58:7d:b5:07:03:
        39:39:f0:e6:bf:56:da:46:42:78:49:dd:b4:8f:74:2a:07:6d:
        7a:e2:18:82:41:e7:04:4f:76:ce:87:d9:6c:bc:8f:82:3e:2f:
        12:48:21:bd:37:67:d3:dd:5e:3f:a4:d6:89:f4:b1:aa:08:55:
        0f:dd:f9:8e:5d:58:e7:b3:e5:2e:21:23:3e:89:1f:81:22:1e:
        76:c0:b6:cb:d0:78:6b:3a:b3:f3:76:40:77:1c:32:8e:bb:18:
        da:be:3b:d0:03:00:53:21:ea:6c:94:9f:b4:66:cd:4e:55:8b:
        05:aa:cb:61:f0:2b:3d:e8:49:3a:49:a7:70:1b:30:48:d1:96:
        e7:82:94:e3:f2:11:22:94:3e:61:b9:3a:6a:a9:02:a3:3c:ff:
        21:24:2a:5b:f6:83:76:39
-----BEGIN CERTIFICATE-----
MIIGQjCCBCqgAwIBAgIBATANBgkqhkiG9w0BAQsFADCBkzEmMCQGA1UEAwwdTXkg
Um9vdCBDZXJ0aWZpY2F0ZSBBdXRob3JpdHkxDDAKBgNVBAgMA05TVzELMAkGA1UE
BhMCQVUxIjAgBgkqhkiG9w0BCQEWE3N1cHBvcnRAZXhhbXBsZS5jb20xFDASBgNV
BAoMC0V4YW1wbGUgT3JnMRQwEgYDVQQLDAtEZXZlbG9wbWVudDAeFw0yNTAxMTAx
MDIyMzhaFw0zMDAxMDkxMDIyMzhaMIGHMRIwEAYDVQQDDAlsb2NhbGhvc3QxGDAW
BgNVBAgMD05ldyBTb3V0aCBXYWxlczELMAkGA1UEBhMCQVUxIDAeBgkqhkiG9w0B
CQEWEXN1cHBvcnRAY3JhenkuY29tMRIwEAYDVQQKDAlDcmF6eSBPcmcxFDASBgNV
BAsMC0RldmVsb3BtZW50MIICIjANBgkqhkiG9w0BAQEFAAOCAg8AMIICCgKCAgEA
xSPOx2n07t6hNOZJLADNmdg5KxUwYal2QRmwQHd6ejP7Oxwogs108n711UCnKso4
3l+IQdRzPRGnckWNYVI0lqitp4YmoeivvkFlNxpRK9HABaFSP8xuyQEPjTlaAgjU
4MAABDQjQ5ry/Ugwt8GqWZ+hx8i5JRMDy4FGOpou94G3y+EM5AISHnZ7fIb5+2gi
lJIrrBYcn7x7FdKnRb+XjUf5GKm17gKK+vyis68Si7BMEMinaOrZNvOama3r+A3r
Dur8CuDFcfnVU+Rtyh14dBGuraRjPTdP0+492ifvrUphwrOdD/Xvqug1WMC7WdRz
egoNKjRGpSnmdL5svzOIAW4vHMQFrIAPMYiYY/wH7xTFnuckV3U2x7jtK6EFAZkX
9uF53kLsrLUK2ZpfGfUB/hLUU3dkUCY50H1AtcrYtMFG1L8hocP07MLllhIBkoa8
idOEOFApcxpi0CNI996CCeP2ybF4LqipZ6E2th8TK1m7b/5aw1QVDHu4GkaiATtE
xXDyudYP+EKTwxifGFD14PYXPEW0XQzXtSZwPTUMvmkpbej8vDxy6O19nSzuQcJn
Y1ybdbljLF/SrzjRwKqJCw4RA04mNZw/T2XNzIJs4FphcEQ+A/BnCJxix3HLvTaL
JEhyIffU8ln+CbXkNpXSMsmSUzkx4/nK/86TFVVzR/sCAwEAAaOBqjCBpzAJBgNV
HRMEAjAAMAsGA1UdDwQEAwIF4DAdBgNVHSUEFjAUBggrBgEFBQcDAQYIKwYBBQUH
AwIwLgYDVR0RBCcwJYIJbG9jYWxob3N0ggx2YXVsdF9zZXJ2ZXKHBH8AAAGHBKwS
AAEwHQYDVR0OBBYEFHBydr/PO9rfXr7cGOwyS8vlfvR7MB8GA1UdIwQYMBaAFK9E
qDIQSDSxppP09K6PVx9535DGMA0GCSqGSIb3DQEBCwUAA4ICAQBij14/xFXkfKZs
msJ/EHTsdcOdtJhat0pVpaFowF6qXaozaQDd90NkeK5VxbwuWrygZeSAsc9kW6ik
FtaZxaEq60QL7KuRljjXzeNtugQKMbx+ZZBykAO+LCmF0Wg36BoMQ9OVJcr9meZi
kxEZmvtOrppjksvD7Zy7ga0tRho5M2tHP6YzbburtwyO/4+QT9czFuytN96fgroW
cEz4y+W2CuwuQu+UbRq8Xj6VExkPyBN9x/M/9ex9wFsoV6dn6cgWPknwAP0dE1J9
yRUn49ZMw4skIA8ZrWYtQW/MOFEGnjDoVqq3u4REg3dKRm9UsOfQWyq0s+P6WMzX
4+lhV4Yl8Z2EDeiyHfvRnoJdJ7y6dVclwfeusZwRjMOSFHCGqA3DLIbIgiMvGADq
FwidAwHzZOyvBqrMQ41pLcIHB20MFUFDu5sSqh9/N7G1TeHLwFZfLYqgk/LpQbvZ
1bso++zlxAEpWH21BwM5OfDmv1baRkJ4Sd20j3QqB2164hiCQecET3bOh9lsvI+C
Pi8SSCG9N2fT3V4/pNaJ9LGqCFUP3fmOXVjns+UuISM+iR+BIh52wLbL0HhrOrPz
dkB3HDKOuxjavjvQAwBTIepslJ+0Zs1OVYsFqsth8Cs96Ek6SadwGzBI0ZbngpTj
8hEilD5huTpqqQKjPP8hJCpb9oN2OQ==
-----END CERTIFICATE-----
-----BEGIN CERTIFICATE-----
MIIF5TCCA82gAwIBAgIUHsm0KRNdUS0/Rl2C9/u/R/GfL7kwDQYJKoZIhvcNAQEL
BQAwgZMxJjAkBgNVBAMMHU15IFJvb3QgQ2VydGlmaWNhdGUgQXV0aG9yaXR5MQww
CgYDVQQIDANOU1cxCzAJBgNVBAYTAkFVMSIwIAYJKoZIhvcNAQkBFhNzdXBwb3J0
QGV4YW1wbGUuY29tMRQwEgYDVQQKDAtFeGFtcGxlIE9yZzEUMBIGA1UECwwLRGV2
ZWxvcG1lbnQwHhcNMjUwMTEwMTAyMjM1WhcNMzAwMTA5MTAyMjM1WjCBkzEmMCQG
A1UEAwwdTXkgUm9vdCBDZXJ0aWZpY2F0ZSBBdXRob3JpdHkxDDAKBgNVBAgMA05T
VzELMAkGA1UEBhMCQVUxIjAgBgkqhkiG9w0BCQEWE3N1cHBvcnRAZXhhbXBsZS5j
b20xFDASBgNVBAoMC0V4YW1wbGUgT3JnMRQwEgYDVQQLDAtEZXZlbG9wbWVudDCC
AiIwDQYJKoZIhvcNAQEBBQADggIPADCCAgoCggIBAMph95fTFnNtsmJCZWiuU1ft
K55W3RZzL92yODEtwd1gcAytB9zgtdOSFDczSR1AcwBcD+xDQwTmo2rvPm69a7el
JTDqyhRljtArGOxWoIc6TK1CP1NA1+p5BiEDj1Tx20z3378sKrwRvXEU1DoUpCXE
mSAz7KZ0xhuyNwN/Jx5Bh2kScLmFj2DYa9E5TTOruUzc7RCwRwG9U31yrwTVo4/k
PbIsw4ozg9sy+yQ194WmtWv9l/HH4eGSHm31RWx69IvPiPrHHexHZCsZUDjXjGyz
Zhvsjj+KQ3c8w5mZZAkKRh9on/1bRhEDHTtaqP5EsU9N82m3l6jor4S7BI+o7peo
z945pae/rxhAzJeBginA1Kp2ocTMgdgtf+FK5kmEb8KBuQlcP+vdVV3O9xK+VPOB
oWNiUEXx5wCGSeaVCtkgFx0xZ/nqEzLhEdvlJvdOL1iakF1PJ0sBp5doiLha0y9w
rLRlHgO52syQYuiKGM+PhZcKi9TMX+g6ukcNIVTUzNmhJFcGw7oiwjHNm15rJVwA
OoBWjDFWrNeHdZIPkJujxqf4gzi3yxHF4xxgAWdH4SqyahL65ASeC9Z6Nk1rGyNh
gd6imPGXlVu9Op0p1mzOJ6jgWOkoR8UgLGpaze/D2ULOd4ev3aaihVrIApzl6e/J
UGEZuGcHHhATgRmv9DnjAgMBAAGjLzAtMAwGA1UdEwQFMAMBAf8wHQYDVR0OBBYE
FK9EqDIQSDSxppP09K6PVx9535DGMA0GCSqGSIb3DQEBCwUAA4ICAQAT4c8q2QnZ
zR+u6RZl64WaDpl9I560WwDf5ot9t5FZiwbA96fgeG7xLWkeGoO5rMKFkiRl7+Ax
CHxmg/gJkCu9qBtwBs1AQfBMp+TmS2+bBEWi05S3Hx8tP/vB1IpBgR8hEwxHPu8R
EXu5Q29j0TJbrga2/sdNMhs8jcfn0n0wAxinO6MDGqgDtSjIbpYEqNI1CmHO83c3
mDPYxfXN7xTkVwXwfzAQWw+AnxgXwgSJuljBKsBxIFTOogFoUqOJWXJ6Jo3t6QGC
TQPmRiTvsqi4UFCZTwwMafrAm7cbf3PhixbOyV0oruPXCIv9BzM28sS65mwYyID7
8n8mdhC5vD1qRFEz6vSu16oggq8ri7yuBIp6ULLcIHiIat2r6eGwF6aIZUGSK1KZ
xBXvyL1caxyCGmPu2I/NgBqO4XMGaEWCT8OgCgF+cI8pQShd6y26mnoOLto/hY9J
lsfxpGLUW3cqYiuhrA6s/P3yYfJOCyOUvjRLdWgmyGy1VeMVDNaLmfeYIoWhetcj
cjIk2gI6fMEM042+nWoY6DrF5C0lCtA8bbMTdaYinGwtFY/ZSM8JPDC1pDxb8QMb
+QOjD+mZorTZUJrQBA50Gh+XxDjbDU8wqtB3kyYKL+c+F/3ovVYecpkWc2Tzeumr
DH1LzpmrzahI6UpX2dOdqALsLpxyiWHJ5A==
-----END CERTIFICATE-----
