Certificate:
    Data:
        Version: 3 (0x2)
        Serial Number: 1 (0x1)
        Signature Algorithm: sha256WithRSAEncryption
        Issuer: CN=Root Certificate Authority, C=AU/emailAddress=support@security.com, ST=New South Wales, O=Security Organization, OU=Certificate Authority
        Validity
            Not Before: Jan 13 00:54:03 2025 GMT
            Not After : Jan  8 00:54:03 2045 GMT
        Subject: CN=vault_server, C=AU/emailAddress=support@crazy.com, O=Crazy Org, ST=New South Wales, OU=Development
        Subject Public Key Info:
            Public Key Algorithm: rsaEncryption
                Public-Key: (4096 bit)
                Modulus:
                    00:ac:dd:14:d3:01:a8:6e:c5:b9:ea:1d:95:c8:13:
                    4a:80:eb:54:0b:6a:ff:81:c9:47:50:d1:b5:3a:b5:
                    55:6c:e9:ec:e7:c4:76:51:ad:c0:51:db:b7:84:6e:
                    f8:9f:f6:4f:cd:e6:40:97:89:d1:f8:83:8f:a6:d0:
                    39:8d:62:96:81:2c:e6:e5:26:12:91:5c:44:8e:86:
                    b0:c4:fb:16:b6:23:f8:a2:72:1b:a3:5f:98:62:cc:
                    9a:32:07:92:66:07:6d:78:77:43:09:7f:16:d2:a2:
                    33:6e:71:41:33:3d:bc:ab:c1:bd:84:dc:d8:8a:77:
                    63:0b:59:98:ed:b9:f0:34:be:29:74:cb:14:e9:43:
                    84:10:95:88:a5:a6:07:7d:17:46:19:c3:4c:74:99:
                    69:bf:39:b3:f5:a3:83:db:1e:df:3d:91:34:e5:b1:
                    3d:79:87:46:52:76:91:7c:50:0a:17:d9:bf:f3:f0:
                    5b:44:69:32:49:73:bb:51:9f:37:2e:f3:fa:10:c8:
                    7c:11:8e:03:d8:f5:8b:84:24:11:cf:0f:d5:eb:1d:
                    6b:b2:fc:12:bf:f3:0e:db:d5:a9:a2:91:c3:92:54:
                    da:b5:26:32:2b:f2:f6:81:4c:69:27:ff:ef:4c:c8:
                    eb:af:49:bf:54:72:e8:12:34:b3:f9:0e:af:cd:7f:
                    00:df:59:24:db:8e:8c:fe:af:c6:5f:e5:38:b7:ed:
                    10:b6:3e:84:08:3a:a6:45:86:3f:c7:e7:2b:d6:82:
                    67:ec:dc:b6:b6:b9:8e:b6:0a:45:c9:52:6b:d9:55:
                    22:f6:18:5e:32:ba:9c:21:9a:94:dd:bd:c4:24:7d:
                    6c:a8:a4:81:ba:1e:0a:d2:3c:18:e8:bc:3f:31:d2:
                    6d:72:3a:9c:45:cc:74:84:07:7d:7d:77:10:0d:c3:
                    11:c2:0a:51:5b:08:db:ff:95:ac:7f:23:7b:7d:4d:
                    2f:85:dd:f8:02:e2:19:10:f9:52:f4:2b:b8:46:6c:
                    33:56:c4:6a:ef:78:d1:86:4b:60:5f:9f:05:2b:24:
                    22:53:cf:69:42:fe:12:fb:63:59:19:67:ee:a0:e0:
                    00:57:ed:95:cc:e3:80:4b:48:6b:de:b4:77:58:89:
                    c8:3c:a2:89:da:6b:6d:f4:cd:ba:6f:2f:ab:cc:db:
                    47:73:23:f1:84:1d:52:9d:ba:c2:03:38:7f:53:cb:
                    be:26:53:00:3d:6f:7b:ca:2a:e3:6c:62:9e:4f:b9:
                    34:35:0a:36:cc:92:79:ca:ee:d5:b4:c6:42:15:b2:
                    3a:c8:85:b5:97:20:2e:87:b5:7a:5d:86:12:b5:c0:
                    94:14:a6:fb:4c:d4:95:c7:49:13:3b:30:d0:66:0f:
                    d4:a3:51
                Exponent: 65537 (0x10001)
        X509v3 extensions:
            X509v3 Basic Constraints: 
                CA:FALSE
            X509v3 Key Usage: 
                Digital Signature, Non Repudiation, Key Encipherment
            X509v3 Extended Key Usage: 
                TLS Web Server Authentication, TLS Web Client Authentication
            X509v3 Subject Alternative Name: 
                DNS:localhost, DNS:vault_server, IP Address:127.0.0.1
            X509v3 Subject Key Identifier: 
                92:14:CA:9E:C5:56:AB:1A:53:F6:9C:92:E8:F4:87:4A:76:38:DB:BE
            X509v3 Authority Key Identifier: 
                F9:45:3D:89:5B:46:EA:5E:CF:B0:86:0D:47:C2:7E:FE:52:AC:93:EE
    Signature Algorithm: sha256WithRSAEncryption
    Signature Value:
        6a:ed:d4:de:29:f3:fc:6a:14:d9:60:61:65:ba:19:55:64:ed:
        7a:35:37:79:35:80:68:41:c2:c4:61:8e:9d:03:da:18:74:88:
        2d:9b:96:d4:ee:42:4c:42:ea:c9:62:50:be:ca:c0:29:39:c6:
        04:02:99:e4:9c:28:0a:3b:4d:2f:d9:35:6c:45:39:eb:17:0c:
        d7:f0:66:c0:e4:9f:f0:fc:5a:bc:10:6d:1c:e0:ff:11:a9:d1:
        fc:f2:b1:70:3a:fd:d7:6a:bd:4d:bf:7c:8d:53:75:9c:98:4f:
        ce:aa:12:77:89:52:cf:18:50:d1:e8:9c:03:7e:e4:9d:27:a9:
        e4:04:f9:b3:f3:a6:6c:e5:8e:4e:3b:0c:84:76:45:99:41:2c:
        44:b1:6a:95:7e:2f:c3:bf:68:f9:e1:87:4d:9d:4f:d2:c2:7d:
        86:f9:ed:22:09:7b:cb:64:53:a3:6d:3e:fc:f2:66:be:c9:53:
        f5:68:22:6c:54:b9:45:5f:dc:ab:0f:3a:37:ca:d9:e1:5a:2e:
        44:d0:44:f8:3b:70:4d:18:4a:4a:82:8b:8c:0a:5e:59:3c:44:
        1d:b2:57:df:24:75:28:82:74:2a:da:d2:94:0f:58:56:85:eb:
        5a:d2:92:ae:49:fa:ba:89:31:0d:34:42:0a:41:f6:16:ed:7a:
        f2:bc:bb:b1:de:bc:38:9b:05:bb:6f:e4:92:16:62:40:83:ca:
        33:2c:92:bf:2d:d5:e7:81:d1:98:5e:ed:da:d4:90:31:9e:1b:
        a4:70:cf:9c:02:b8:a9:3f:8c:6a:cb:52:a4:dc:05:d9:64:c1:
        c4:69:cd:7e:39:51:b0:40:fd:ba:1e:7f:15:1a:03:c3:38:86:
        5c:54:17:17:e5:dc:35:70:78:82:fc:a7:3c:b0:a0:b8:e7:5d:
        21:7c:64:c2:9b:97:7c:7c:40:d4:5d:57:db:cc:30:0a:67:b5:
        e8:6c:cd:af:bd:4d:ea:77:ff:8d:94:32:ba:7b:c8:ee:6a:0b:
        0c:c4:2f:95:db:d7:9c:3a:97:c6:ae:72:aa:8a:16:17:fb:fb:
        13:5b:86:44:05:12:93:1e:ce:e0:03:c4:ae:fa:78:5d:df:4b:
        81:a4:a8:25:ae:9c:c9:6c:8f:6c:90:38:8a:44:6d:b5:cf:65:
        a7:07:e7:38:ba:8e:11:ba:4c:6e:fb:8b:e1:07:29:e8:98:92:
        04:ae:41:97:f6:ef:54:15:20:73:80:c7:d1:44:35:b7:eb:f3:
        60:4e:ca:30:b2:a3:7f:4e:d6:83:6c:e5:5e:c9:4f:1b:e4:59:
        28:a5:dc:cd:7e:81:30:bd:52:61:c5:11:03:07:8b:1d:f6:95:
        f4:c3:69:f7:99:ad:24:e1
-----BEGIN CERTIFICATE-----
MIIGXTCCBEWgAwIBAgIBATANBgkqhkiG9w0BAQsFADCBsTEjMCEGA1UEAwwaUm9v
dCBDZXJ0aWZpY2F0ZSBBdXRob3JpdHkxCzAJBgNVBAYTAkFVMSMwIQYJKoZIhvcN
AQkBFhRzdXBwb3J0QHNlY3VyaXR5LmNvbTEYMBYGA1UECAwPTmV3IFNvdXRoIFdh
bGVzMR4wHAYDVQQKDBVTZWN1cml0eSBPcmdhbml6YXRpb24xHjAcBgNVBAsMFUNl
cnRpZmljYXRlIEF1dGhvcml0eTAeFw0yNTAxMTMwMDU0MDNaFw00NTAxMDgwMDU0
MDNaMIGKMRUwEwYDVQQDDAx2YXVsdF9zZXJ2ZXIxCzAJBgNVBAYTAkFVMSAwHgYJ
KoZIhvcNAQkBFhFzdXBwb3J0QGNyYXp5LmNvbTESMBAGA1UECgwJQ3JhenkgT3Jn
MRgwFgYDVQQIDA9OZXcgU291dGggV2FsZXMxFDASBgNVBAsMC0RldmVsb3BtZW50
MIICIjANBgkqhkiG9w0BAQEFAAOCAg8AMIICCgKCAgEArN0U0wGobsW56h2VyBNK
gOtUC2r/gclHUNG1OrVVbOns58R2Ua3AUdu3hG74n/ZPzeZAl4nR+IOPptA5jWKW
gSzm5SYSkVxEjoawxPsWtiP4onIbo1+YYsyaMgeSZgdteHdDCX8W0qIzbnFBMz28
q8G9hNzYindjC1mY7bnwNL4pdMsU6UOEEJWIpaYHfRdGGcNMdJlpvzmz9aOD2x7f
PZE05bE9eYdGUnaRfFAKF9m/8/BbRGkySXO7UZ83LvP6EMh8EY4D2PWLhCQRzw/V
6x1rsvwSv/MO29WpopHDklTatSYyK/L2gUxpJ//vTMjrr0m/VHLoEjSz+Q6vzX8A
31kk246M/q/GX+U4t+0Qtj6ECDqmRYY/x+cr1oJn7Ny2trmOtgpFyVJr2VUi9hhe
MrqcIZqU3b3EJH1sqKSBuh4K0jwY6Lw/MdJtcjqcRcx0hAd9fXcQDcMRwgpRWwjb
/5WsfyN7fU0vhd34AuIZEPlS9Cu4RmwzVsRq73jRhktgX58FKyQiU89pQv4S+2NZ
GWfuoOAAV+2VzOOAS0hr3rR3WInIPKKJ2mtt9M26by+rzNtHcyPxhB1SnbrCAzh/
U8u+JlMAPW97yirjbGKeT7k0NQo2zJJ5yu7VtMZCFbI6yIW1lyAuh7V6XYYStcCU
FKb7TNSVx0kTOzDQZg/Uo1ECAwEAAaOBpDCBoTAJBgNVHRMEAjAAMAsGA1UdDwQE
AwIF4DAdBgNVHSUEFjAUBggrBgEFBQcDAQYIKwYBBQUHAwIwKAYDVR0RBCEwH4IJ
bG9jYWxob3N0ggx2YXVsdF9zZXJ2ZXKHBH8AAAEwHQYDVR0OBBYEFJIUyp7FVqsa
U/ackuj0h0p2ONu+MB8GA1UdIwQYMBaAFPlFPYlbRupez7CGDUfCfv5SrJPuMA0G
CSqGSIb3DQEBCwUAA4ICAQBq7dTeKfP8ahTZYGFluhlVZO16NTd5NYBoQcLEYY6d
A9oYdIgtm5bU7kJMQurJYlC+ysApOcYEApnknCgKO00v2TVsRTnrFwzX8GbA5J/w
/Fq8EG0c4P8RqdH88rFwOv3Xar1Nv3yNU3WcmE/OqhJ3iVLPGFDR6JwDfuSdJ6nk
BPmz86Zs5Y5OOwyEdkWZQSxEsWqVfi/Dv2j54YdNnU/Swn2G+e0iCXvLZFOjbT78
8ma+yVP1aCJsVLlFX9yrDzo3ytnhWi5E0ET4O3BNGEpKgouMCl5ZPEQdslffJHUo
gnQq2tKUD1hWheta0pKuSfq6iTENNEIKQfYW7XryvLux3rw4mwW7b+SSFmJAg8oz
LJK/LdXngdGYXu3a1JAxnhukcM+cAripP4xqy1Kk3AXZZMHEac1+OVGwQP26Hn8V
GgPDOIZcVBcX5dw1cHiC/Kc8sKC4510hfGTCm5d8fEDUXVfbzDAKZ7XobM2vvU3q
d/+NlDK6e8juagsMxC+V29ecOpfGrnKqihYX+/sTW4ZEBRKTHs7gA8Su+nhd30uB
pKglrpzJbI9skDiKRG21z2WnB+c4uo4Rukxu+4vhBynomJIErkGX9u9UFSBzgMfR
RDW36/NgTsowsqN/TtaDbOVeyU8b5FkopdzNfoEwvVJhxREDB4sd9pX0w2n3ma0k
4Q==
-----END CERTIFICATE-----
-----BEGIN CERTIFICATE-----
MIIGnDCCBISgAwIBAgIUX/Hbtn92s2DBV/65lCwSZK1JFl0wDQYJKoZIhvcNAQEL
BQAwgbExIzAhBgNVBAMMGlJvb3QgQ2VydGlmaWNhdGUgQXV0aG9yaXR5MQswCQYD
VQQGEwJBVTEjMCEGCSqGSIb3DQEJARYUc3VwcG9ydEBzZWN1cml0eS5jb20xGDAW
BgNVBAgMD05ldyBTb3V0aCBXYWxlczEeMBwGA1UECgwVU2VjdXJpdHkgT3JnYW5p
emF0aW9uMR4wHAYDVQQLDBVDZXJ0aWZpY2F0ZSBBdXRob3JpdHkwHhcNMjUwMTEz
MDA1NDAwWhcNNDUwMTA4MDA1NDAwWjCBsTEjMCEGA1UEAwwaUm9vdCBDZXJ0aWZp
Y2F0ZSBBdXRob3JpdHkxCzAJBgNVBAYTAkFVMSMwIQYJKoZIhvcNAQkBFhRzdXBw
b3J0QHNlY3VyaXR5LmNvbTEYMBYGA1UECAwPTmV3IFNvdXRoIFdhbGVzMR4wHAYD
VQQKDBVTZWN1cml0eSBPcmdhbml6YXRpb24xHjAcBgNVBAsMFUNlcnRpZmljYXRl
IEF1dGhvcml0eTCCAiIwDQYJKoZIhvcNAQEBBQADggIPADCCAgoCggIBAMO89uXx
OcpUOuSg2eoEzF+tYilM8y0y2TH2HR5qYf6wkQBX3e/hn2QSqwje/u/wraEfYmQ+
rZuHU37Waw/YcIAKx+r4rlxmSTqx+1UgiVlMGzHzm6NcBuuJVf2OYjqlipeG61Rf
46x9IXMG1jrE/VprnGgU99sr1kNWylg+k9M4yvEEWw8ccU2WC1W8XUJltDTlRvvE
oPGinsPAtn5ydgj69IwNXGT9a+acOPsmrySI0ZWh8vtUGuDal9TA4HFOswnq/wt3
TOt5SS89mw0wSfnPleYXpG0zsKZuk92IVYnffJ6aT35O/DCH6h+HM9q7nw7DEs0h
cnNu/z69Rr2hB9zXJI/5KJ7LLnQj01qqFw1Juj826qJOpx5zPPjLJTIsIWWCr5L9
OjKrhusWEZUwn68GaWthW+mmlro7zrwjE4rnpKOjqHT6FN33jKxHT/S6/K/Vi1KM
/VBl0c0fEZaaPO8KhqAvpGD0R9nZDadvI9EcpIw5TlPazGHCR8OF5I869+jJMDRq
qENVbbburvQ6ccUA+qOtG8U13YxAKlzoKMzDyJVj5/p2zd1STxm+UZ+/ycX+Dewf
XRXf4n596EIDxApZ9yI/XLXxxtLO63x7gPjVfDFn9F7iodBWD66G5hmgx9CUgedx
G9152Qb26mHpR5oN+nWG2ZWaDME+vrW5J04rAgMBAAGjgakwgaYwDAYDVR0TBAUw
AwEB/zALBgNVHQ8EBAMCAQYwNAYIKwYBBQUHAQEEKDAmMCQGCCsGAQUFBzABhhho
dHRwOi8vb2NzcC5zZWN1cml0eS5jb20wNAYDVR0fBC0wKzApoCegJYYjaHR0cDov
L2NybC5zZWN1cml0eS5jb20vcm9vdC1jYS5jcmwwHQYDVR0OBBYEFPlFPYlbRupe
z7CGDUfCfv5SrJPuMA0GCSqGSIb3DQEBCwUAA4ICAQA1YTGOkq9cxtP1Q3koiAV3
4nlcoDd8nX5+BeaKsiZtq59Z7D+YjagVuiI6xBQ5sm05cXbolbLVY0xNjeCtp9qR
hqJqK4keItC6Xef+DLm59R6N8fn9eDSMi8g1IKDE05UWfn/iSSTz+0M+UdS4VBXo
kwQHAjnpcvEojKGn8jYCajyPUzhxJhPN13Xr1Wnet3yFGEogcMZCoIF4GvRJJ7Dw
nUSlLXypAdkG0eY7gyrYRQUsm+wN/+HixVG17qqZ7XQa5FiwNAVlyeNvDeCGU5Vb
8PL26YUZqezjRZilP8cqYd4jXpa/7nvcnIyFnZcbW+78CfgcVcqBVC45wdJgxxFS
nGjXfIfToGT6c5Zl03tK5sTz8gCPsnuK6iuxhAYMZXPe3/XuIpII9iFXYep2SgGR
k74dpgvNAwB29KYyAdxkZubnLYwFLxPSEHokKopzJa8hrAE2wBzklu0WANkuNL1A
qmh5FUdXY/VrUTw8rCuvKo0YkVZRHsSn8/NvQz5EPvjpv7fnnS70nRPhkOkPku5J
WGZ3Uq+p4VfZ19WPYJz9RTrMmfVOJ1g5fffKsqLcP2hXMHJhcsuB39kxmMmmipBG
jdLUCToUTcvkoi7simrNBQoxGOBMVeSgsM/KTzw2uk8xa5PrnjAM94dwiRroybeq
G0iHnBugb4Yl1sqa9kFMnQ==
-----END CERTIFICATE-----
