Certificate:
    Data:
        Version: 3 (0x2)
        Serial Number: 1 (0x1)
        Signature Algorithm: sha256WithRSAEncryption
        Issuer: CN=My Root Certificate Authority, ST=NSW, C=AU/emailAddress=support@example.com, O=Example Org, OU=Development
        Validity
            Not Before: Jan 10 14:09:50 2025 GMT
            Not After : Jan  9 14:09:50 2030 GMT
        Subject: CN=localhost, ST=New South Wales, C=AU/emailAddress=support@crazy.com, O=Crazy Org, OU=Development
        Subject Public Key Info:
            Public Key Algorithm: rsaEncryption
                Public-Key: (4096 bit)
                Modulus:
                    00:d9:6d:d2:09:35:4d:ef:f5:07:1a:0e:65:af:09:
                    29:2e:ca:39:76:90:f9:7d:10:f3:10:97:1b:6f:64:
                    c5:87:31:40:fd:b8:26:05:5e:96:d8:33:1e:eb:e9:
                    41:84:17:72:3a:eb:a5:93:9e:fc:bb:76:e7:00:d2:
                    4d:06:60:58:91:51:5d:e0:87:83:06:74:66:3e:b6:
                    4e:98:cc:ed:b4:26:60:90:ea:6d:97:38:ab:81:da:
                    a4:ff:ba:70:18:1f:be:c1:42:b5:f2:7e:b9:90:fe:
                    a7:dd:76:04:3e:1a:50:65:49:9c:25:72:26:d7:d4:
                    c6:d7:a0:4d:88:1c:e5:a5:e2:c5:34:b6:f4:df:e5:
                    87:63:4a:dc:dc:5a:1a:c9:08:a5:e2:43:80:de:b3:
                    68:77:6a:d9:be:3d:2e:37:0c:5b:31:04:7b:e5:9b:
                    c8:94:b9:84:0b:2c:d7:a3:df:87:48:d3:28:cc:9c:
                    df:b5:66:97:46:41:cd:73:39:87:82:e0:f3:4c:e5:
                    e5:ed:86:d1:4e:ef:fd:d4:76:d5:67:e1:47:5e:b1:
                    d3:1f:83:58:c6:28:fe:c0:44:8b:13:b4:df:46:aa:
                    1a:de:8e:e5:62:f8:01:c7:bc:03:27:d4:a8:d7:fa:
                    8f:b4:dd:b6:e0:08:1a:6f:bf:75:e0:41:d4:3a:d4:
                    33:9c:c1:c2:5c:af:75:df:4b:c8:07:17:32:6a:4d:
                    c4:8d:2e:d5:07:35:ca:d9:f6:98:97:76:0c:0e:30:
                    9b:09:64:37:3d:6f:e3:3a:2a:d1:1f:35:6e:20:b3:
                    1c:50:45:86:1f:b9:63:5a:b8:ba:61:83:33:0b:34:
                    a3:5e:6c:dc:43:18:8a:1c:3c:f3:ba:d6:ca:c7:8c:
                    cc:25:d1:29:2d:f9:1e:35:87:0b:20:df:3d:35:84:
                    4b:c2:49:ce:b2:43:ab:26:91:a6:24:61:e8:42:aa:
                    e4:ba:80:b1:b2:5f:2a:13:5d:86:79:9b:46:46:62:
                    c6:30:d0:61:8f:e2:44:bb:e1:c7:ca:c9:af:54:fc:
                    6d:fc:ed:e2:a8:ff:35:b4:c9:d8:f0:e4:56:f3:86:
                    e3:df:3f:46:e5:ae:33:6d:c1:30:31:46:dd:2b:91:
                    9a:a7:ed:9a:e5:7a:c7:d2:db:97:6e:9e:49:0a:50:
                    98:89:e9:42:12:b5:c3:f7:ea:4c:a2:f8:21:fc:9d:
                    c3:40:25:83:e2:60:ad:f4:69:4c:75:7b:91:68:bb:
                    0c:8b:bb:bb:8c:b7:d4:a6:21:b7:76:a4:0a:85:28:
                    20:75:2c:5f:54:11:78:56:6e:a6:d7:77:a3:a3:9a:
                    35:3e:ac:fc:f6:9b:59:bc:4b:c7:87:b7:01:18:6a:
                    09:f4:5d
                Exponent: 65537 (0x10001)
        X509v3 extensions:
            X509v3 Basic Constraints: 
                CA:FALSE
            X509v3 Key Usage: 
                Digital Signature, Non Repudiation, Key Encipherment
            X509v3 Extended Key Usage: 
                TLS Web Server Authentication, TLS Web Client Authentication
            X509v3 Subject Alternative Name: 
                DNS:localhost, DNS:vault_server, IP Address:127.0.0.1
            X509v3 Subject Key Identifier: 
                09:97:1F:0F:12:C3:CF:0A:C1:2A:7C:E0:AF:10:25:93:AB:71:4C:78
            X509v3 Authority Key Identifier: 
                79:15:E4:04:DD:09:2A:8D:82:65:00:48:26:1E:3B:FC:80:A6:A5:84
    Signature Algorithm: sha256WithRSAEncryption
    Signature Value:
        06:9c:99:46:0c:cb:48:59:39:f4:74:bb:f7:fb:aa:b5:78:44:
        83:d6:5c:4b:38:d3:6c:66:57:cb:6d:80:11:1a:7f:bc:a7:94:
        a1:8a:6a:df:d1:b2:68:fc:1b:58:50:cd:c0:4c:b5:be:a1:52:
        7b:02:39:00:a3:f8:1f:1a:0a:18:86:ce:fa:b4:04:1c:a0:1b:
        e7:63:68:0e:93:b9:67:51:90:dd:78:2f:06:80:7b:45:0b:36:
        04:26:70:5b:36:33:77:16:6a:b4:dc:7d:70:a3:67:93:77:9b:
        b6:14:40:7d:eb:6a:4d:bc:64:82:2f:4f:35:cc:52:a2:a1:f0:
        7e:c9:c2:d6:d3:26:11:4c:b6:e1:0d:84:f6:09:fc:1b:f8:73:
        fd:b8:a7:b3:99:60:91:b9:13:7a:36:15:09:03:3d:ba:3c:b3:
        f3:35:01:fe:4d:8f:4b:7f:f6:d2:2d:de:2e:b6:3b:98:78:8f:
        5e:2c:b5:6d:2e:56:af:43:76:b3:f2:3a:79:69:96:12:17:fd:
        4a:ba:bb:86:03:ac:18:cc:ca:85:01:aa:05:9f:72:88:4f:95:
        d2:dd:35:5d:cc:02:2d:20:7d:1e:62:66:c2:0e:48:5d:17:72:
        ac:3a:18:d7:11:86:dd:b1:9f:dd:be:02:82:16:f7:c8:01:f4:
        16:77:8a:58:88:14:c1:71:ac:dc:fe:8b:98:1e:f2:3c:31:a5:
        0b:bd:dd:70:cc:31:39:82:b2:25:48:c1:7c:0f:18:e1:6f:3a:
        89:18:46:e4:7e:5b:ab:48:6f:9e:53:72:c7:1e:c4:93:da:1e:
        1f:95:06:53:66:7a:62:a9:f6:40:f4:4b:6e:ed:c6:84:80:ae:
        af:1b:f4:e9:0c:ee:83:18:4e:04:55:03:80:b3:38:56:4b:92:
        65:84:4b:9b:70:57:10:d9:70:57:7e:8d:85:9c:9a:ef:8f:14:
        cc:37:a5:9b:bd:9f:7e:28:96:56:29:e0:8f:31:f2:a4:1c:19:
        be:27:a0:b4:e0:9d:b0:b6:8a:be:2b:3f:97:a1:a8:6b:6f:b3:
        ae:26:d5:92:b9:8d:8a:50:53:8f:d6:20:af:f4:3b:de:c5:ad:
        b1:7e:d1:ad:44:6f:95:3c:29:ef:21:8d:d2:d2:b1:58:39:18:
        04:af:7a:d3:bd:69:c0:93:71:c8:40:79:cf:b8:d0:05:3d:70:
        a7:c5:bb:27:5c:55:1e:f6:5a:6e:03:2a:6e:34:fc:39:8e:83:
        e2:16:8e:20:f2:d9:13:93:8f:b0:1f:6f:49:21:04:f1:7b:c6:
        70:01:28:58:63:f7:27:c8:08:b3:45:4a:97:00:43:f4:0e:28:
        70:21:90:5d:a0:e5:83:74
-----BEGIN CERTIFICATE-----
MIIGPDCCBCSgAwIBAgIBATANBgkqhkiG9w0BAQsFADCBkzEmMCQGA1UEAwwdTXkg
Um9vdCBDZXJ0aWZpY2F0ZSBBdXRob3JpdHkxDDAKBgNVBAgMA05TVzELMAkGA1UE
BhMCQVUxIjAgBgkqhkiG9w0BCQEWE3N1cHBvcnRAZXhhbXBsZS5jb20xFDASBgNV
BAoMC0V4YW1wbGUgT3JnMRQwEgYDVQQLDAtEZXZlbG9wbWVudDAeFw0yNTAxMTAx
NDA5NTBaFw0zMDAxMDkxNDA5NTBaMIGHMRIwEAYDVQQDDAlsb2NhbGhvc3QxGDAW
BgNVBAgMD05ldyBTb3V0aCBXYWxlczELMAkGA1UEBhMCQVUxIDAeBgkqhkiG9w0B
CQEWEXN1cHBvcnRAY3JhenkuY29tMRIwEAYDVQQKDAlDcmF6eSBPcmcxFDASBgNV
BAsMC0RldmVsb3BtZW50MIICIjANBgkqhkiG9w0BAQEFAAOCAg8AMIICCgKCAgEA
2W3SCTVN7/UHGg5lrwkpLso5dpD5fRDzEJcbb2TFhzFA/bgmBV6W2DMe6+lBhBdy
Ouulk578u3bnANJNBmBYkVFd4IeDBnRmPrZOmMzttCZgkOptlzirgdqk/7pwGB++
wUK18n65kP6n3XYEPhpQZUmcJXIm19TG16BNiBzlpeLFNLb03+WHY0rc3FoayQil
4kOA3rNod2rZvj0uNwxbMQR75ZvIlLmECyzXo9+HSNMozJzftWaXRkHNczmHguDz
TOXl7YbRTu/91HbVZ+FHXrHTH4NYxij+wESLE7TfRqoa3o7lYvgBx7wDJ9So1/qP
tN224Agab7914EHUOtQznMHCXK9130vIBxcyak3EjS7VBzXK2faYl3YMDjCbCWQ3
PW/jOirRHzVuILMcUEWGH7ljWri6YYMzCzSjXmzcQxiKHDzzutbKx4zMJdEpLfke
NYcLIN89NYRLwknOskOrJpGmJGHoQqrkuoCxsl8qE12GeZtGRmLGMNBhj+JEu+HH
ysmvVPxt/O3iqP81tMnY8ORW84bj3z9G5a4zbcEwMUbdK5Gap+2a5XrH0tuXbp5J
ClCYielCErXD9+pMovgh/J3DQCWD4mCt9GlMdXuRaLsMi7u7jLfUpiG3dqQKhSgg
dSxfVBF4Vm6m13ejo5o1Pqz89ptZvEvHh7cBGGoJ9F0CAwEAAaOBpDCBoTAJBgNV
HRMEAjAAMAsGA1UdDwQEAwIF4DAdBgNVHSUEFjAUBggrBgEFBQcDAQYIKwYBBQUH
AwIwKAYDVR0RBCEwH4IJbG9jYWxob3N0ggx2YXVsdF9zZXJ2ZXKHBH8AAAEwHQYD
VR0OBBYEFAmXHw8Sw88KwSp84K8QJZOrcUx4MB8GA1UdIwQYMBaAFHkV5ATdCSqN
gmUASCYeO/yApqWEMA0GCSqGSIb3DQEBCwUAA4ICAQAGnJlGDMtIWTn0dLv3+6q1
eESD1lxLONNsZlfLbYARGn+8p5Shimrf0bJo/BtYUM3ATLW+oVJ7AjkAo/gfGgoY
hs76tAQcoBvnY2gOk7lnUZDdeC8GgHtFCzYEJnBbNjN3Fmq03H1wo2eTd5u2FEB9
62pNvGSCL081zFKiofB+ycLW0yYRTLbhDYT2Cfwb+HP9uKezmWCRuRN6NhUJAz26
PLPzNQH+TY9Lf/bSLd4utjuYeI9eLLVtLlavQ3az8jp5aZYSF/1KuruGA6wYzMqF
AaoFn3KIT5XS3TVdzAItIH0eYmbCDkhdF3KsOhjXEYbdsZ/dvgKCFvfIAfQWd4pY
iBTBcazc/ouYHvI8MaULvd1wzDE5grIlSMF8DxjhbzqJGEbkflurSG+eU3LHHsST
2h4flQZTZnpiqfZA9Etu7caEgK6vG/TpDO6DGE4EVQOAszhWS5JlhEubcFcQ2XBX
fo2FnJrvjxTMN6WbvZ9+KJZWKeCPMfKkHBm+J6C04J2wtoq+Kz+Xoahrb7OuJtWS
uY2KUFOP1iCv9Dvexa2xftGtRG+VPCnvIY3S0rFYORgEr3rTvWnAk3HIQHnPuNAF
PXCnxbsnXFUe9lpuAypuNPw5joPiFo4g8tkTk4+wH29JIQTxe8ZwAShYY/cnyAiz
RUqXAEP0DihwIZBdoOWDdA==
-----END CERTIFICATE-----
-----BEGIN CERTIFICATE-----
MIIF5TCCA82gAwIBAgIUB4aNsbnOOnyc3dgZwdJs8GecHyYwDQYJKoZIhvcNAQEL
BQAwgZMxJjAkBgNVBAMMHU15IFJvb3QgQ2VydGlmaWNhdGUgQXV0aG9yaXR5MQww
CgYDVQQIDANOU1cxCzAJBgNVBAYTAkFVMSIwIAYJKoZIhvcNAQkBFhNzdXBwb3J0
QGV4YW1wbGUuY29tMRQwEgYDVQQKDAtFeGFtcGxlIE9yZzEUMBIGA1UECwwLRGV2
ZWxvcG1lbnQwHhcNMjUwMTEwMTQwOTQ3WhcNMzAwMTA5MTQwOTQ3WjCBkzEmMCQG
A1UEAwwdTXkgUm9vdCBDZXJ0aWZpY2F0ZSBBdXRob3JpdHkxDDAKBgNVBAgMA05T
VzELMAkGA1UEBhMCQVUxIjAgBgkqhkiG9w0BCQEWE3N1cHBvcnRAZXhhbXBsZS5j
b20xFDASBgNVBAoMC0V4YW1wbGUgT3JnMRQwEgYDVQQLDAtEZXZlbG9wbWVudDCC
AiIwDQYJKoZIhvcNAQEBBQADggIPADCCAgoCggIBAJRIw29ZSxncgCXUZEvegHGd
Zrq7LG2fg2nVIDhtYaE6we7a615KAI09hfn8MHfUxXEnGT6/vtuWyz+92GshfTCs
+X6pUDA1bZVFozSSIrYBwFC3FiKJ0zy3yr/KYhUILOHB0C8JgWaacKKSTAOh7OzF
e2mS/dpkDs0D1W/wqnTV8PYF1geMNnfuMYSSskBqgQVjTQ59Bny5MrX3b48/tuLx
/9XYl9ZGKsVDJn2cuCudI7IfBE+ALCrhICM3dwNBWfTVEOHXwEg4FDiAg74GnsY9
NUPiY74VyIwB0N5j5388lzNe+vRdGaEPP0iLpHaKB37ZYArKyXmhl5p50HSQiWWh
KnlCt3uMFzrPGfK0vHWg5L29swynISwQNK6Q4aB78/rBcCWxo2vWrPuncHHLD4k4
RsIrVUNcNZvJB/nzrFlOp1fChDUHWzRjUjTGZMS8N36wuDLBEVsLYAzpN2wIo438
UetBEChCgTyes5VFSDi9yrz21ItW13iNGxvFKyU68mk8AUzw8W6BIN+SkBaGZnRZ
7+idxU1FMrcsUU26aymFRHoLE1K01vGIdTf50WVSxMWgiIRgaHFJbZLeMM8N093J
GD6ExPGGhqj3KWm2fhaveYb3rJXsAT9KvS7/a8Y5naiSYgqkC7Xma7KL1QiXURLN
AZba93iafrUwOY7EpcjBAgMBAAGjLzAtMAwGA1UdEwQFMAMBAf8wHQYDVR0OBBYE
FHkV5ATdCSqNgmUASCYeO/yApqWEMA0GCSqGSIb3DQEBCwUAA4ICAQBKEK51loqW
uD/MuvY3tbu5MH6kRog2zgvBXX65klDIAr61ISoZh3DBBNvDCLovceJY+IEeLXwh
BlhkI6/Bsl4I0srATBH1UUeVq9fQ4/9PlMPjHbiN5LvzdA7+xQJrt60Lp1zszc4G
PKj600E3PMkUbn/4LryuT70h37noCjvgI3FYwKIJ1NkWA0rcVvA19Sivbrut7+4z
ToKQlxaJe2/m1kTodCkaUvbFXTmTEtxXXNGCc6aluc7bAQ0HNbcASkDZvgmZBH3f
t/xWCrZOXJoiKRnbTwL46UnW8d4lZ0qE2HcaNpi8ZAB/8j91Ac3Aan/dy7RVFFwY
ZFUXTVUia7re6jJFvu1Occsxp45NxpvNXZNReOEyDc5q5e3mZotli/G+nwfvx8CY
/ThG1YdrOeRRxQObp5H14TclsF6r5V8vHkJjOVNuEibeQUB8+aEoYQn9f5Oz42Vt
6EXBI0B43/wccTqtpetOAJODrhz8qakK+7+4DbVpRBbqCLjNBd9+l9kQNRtiE/el
3VBwAwuh6My1IqJw95FbOSPDmB/b/q7RF+mrp2Yot4kzNac2jocxh279is/H9xA5
VUCRTdilHNpJbp0vhqdfoIf+ermw/xyHCbvYRk6QjfeYgx8Vci5apd3Vi7e4ZXwZ
eGuJAdB4cPA/umxzcQW7z/xiKa10XG3KjQ==
-----END CERTIFICATE-----
