Certificate:
    Data:
        Version: 3 (0x2)
        Serial Number: 1 (0x1)
        Signature Algorithm: sha256WithRSAEncryption
        Issuer: CN=My Root Certificate Authority, ST=NSW, C=AU/emailAddress=support@example.com, O=Example Org, OU=Development
        Validity
            Not Before: Jan 10 17:41:59 2025 GMT
            Not After : Jan  9 17:41:59 2030 GMT
        Subject: CN=vault_server, ST=New South Wales, C=AU/emailAddress=support@crazy.com, O=Crazy Org, OU=Development
        Subject Public Key Info:
            Public Key Algorithm: rsaEncryption
                Public-Key: (4096 bit)
                Modulus:
                    00:bb:7a:60:a5:f9:41:e6:e4:a5:b8:8f:2e:df:ed:
                    13:d3:c9:c6:12:24:97:23:cf:f3:d2:09:fe:a3:0a:
                    d2:cd:df:32:66:37:1e:54:ad:f9:9f:6e:56:89:6f:
                    3e:60:b2:d2:0e:d0:cb:f8:2d:39:6e:5e:c2:5b:1c:
                    9d:ab:e4:17:65:bf:95:fe:04:15:96:2f:28:51:cf:
                    dc:61:ab:da:04:be:95:6e:05:b5:54:a8:d5:8c:dd:
                    99:ba:b0:ca:0b:e5:00:26:23:29:23:ed:4f:a4:7d:
                    df:75:4a:a4:63:50:12:36:c0:81:b9:73:e6:20:36:
                    0f:bd:47:6a:e9:6d:6c:30:64:9c:df:dd:c2:23:b8:
                    b8:e7:eb:f9:33:29:60:69:8a:dd:a6:73:d5:ec:97:
                    48:a7:2b:c0:7b:3f:18:79:a1:b9:68:51:f1:4f:38:
                    ee:42:5f:49:43:80:5f:fa:38:86:44:d7:56:79:9b:
                    0a:30:7c:67:57:33:31:bf:a8:67:f6:d9:18:60:0c:
                    ea:58:c1:44:19:73:2d:0b:a1:d4:48:cf:36:61:88:
                    e9:a8:70:45:e9:49:7b:17:50:af:b0:00:53:ec:cf:
                    01:c6:15:fd:f2:08:9f:71:18:1e:3b:62:84:3b:41:
                    c3:f4:cc:2b:f2:7a:b5:b8:e5:a8:9e:cb:ef:d6:96:
                    a7:c8:3f:56:a8:bd:37:8d:ec:5a:5b:bb:ce:19:f5:
                    6c:6f:4c:fb:ce:ab:9e:98:ce:1b:58:0b:74:0c:36:
                    af:8d:4d:93:20:dc:36:29:e0:4c:17:42:44:4e:33:
                    37:d3:c7:b4:11:c3:bd:29:96:4a:7f:4e:42:17:ec:
                    68:94:d0:69:f3:9f:4b:7e:70:5b:9f:7d:d6:a5:59:
                    2a:98:e5:29:78:ed:06:25:31:e4:df:75:61:9d:48:
                    73:15:45:23:78:f6:02:34:79:12:9d:ff:e9:ed:17:
                    7e:c5:dc:b7:b9:7b:50:e7:18:c8:94:3a:43:15:fd:
                    54:e6:a3:d6:4e:b5:4a:1b:d3:3b:57:18:89:ba:01:
                    2a:f9:b5:04:98:4b:20:c3:8e:34:d0:aa:4d:ee:f5:
                    ea:b8:fc:69:a3:57:2f:ed:87:d2:48:33:f0:ac:0c:
                    26:50:c2:50:c2:42:28:0e:3f:e1:6b:96:08:38:33:
                    d8:9b:a1:41:26:4c:b2:dd:69:42:2f:1c:6f:ab:50:
                    81:9c:8f:17:05:4f:76:88:76:b6:79:8d:5c:e7:ba:
                    6d:0d:54:c7:61:05:8a:d0:54:a7:ec:1c:c0:5a:18:
                    43:33:42:e7:cb:27:34:99:8c:d4:eb:a6:a5:81:ff:
                    d6:d6:a7:60:90:22:82:2a:2a:83:1c:bb:c2:36:d6:
                    a7:5b:a1
                Exponent: 65537 (0x10001)
        X509v3 extensions:
            X509v3 Basic Constraints: 
                CA:FALSE
            X509v3 Key Usage: 
                Digital Signature, Non Repudiation, Key Encipherment
            X509v3 Extended Key Usage: 
                TLS Web Server Authentication, TLS Web Client Authentication
            X509v3 Subject Alternative Name: 
                DNS:localhost, DNS:vault_server, IP Address:127.0.0.1
            X509v3 Subject Key Identifier: 
                56:D2:13:6F:F0:A5:D8:3E:7C:48:99:1B:57:1F:1E:2A:2C:AC:C0:3B
            X509v3 Authority Key Identifier: 
                99:8C:98:01:5C:FD:D3:0A:91:2A:B8:F7:37:5C:12:D7:A4:6B:09:95
    Signature Algorithm: sha256WithRSAEncryption
    Signature Value:
        04:90:dc:e3:8d:d8:70:11:89:72:e9:27:aa:4a:ed:b3:9e:8f:
        f0:7a:d6:ee:80:99:72:1b:91:af:ac:ee:b9:73:5a:a5:35:6d:
        f7:5a:aa:ef:ad:7f:f7:ea:c7:1e:70:e2:a6:f7:bf:0b:26:2c:
        d8:01:67:31:59:ff:bd:5d:51:71:7c:06:45:7b:a7:f6:49:2d:
        48:4f:4c:76:78:f8:26:66:cc:cb:49:e2:7a:e5:77:d4:5c:29:
        20:44:e6:74:92:60:86:6e:1e:21:08:37:85:5b:02:9a:01:01:
        04:b9:62:b9:05:cb:cf:44:70:b6:91:8c:da:d6:66:17:91:a3:
        a7:f9:ec:a0:c3:07:0a:ae:06:49:d6:15:d5:fd:36:ee:fe:e7:
        6e:a2:e2:1c:58:92:1b:55:95:69:28:76:4e:82:c6:3a:4a:d8:
        5f:d5:00:b1:89:80:46:c4:c8:27:30:3a:97:a3:89:72:ea:44:
        f4:34:f4:c3:0b:b3:99:57:60:aa:df:96:ce:28:43:c3:cb:5c:
        88:8c:b6:11:3e:75:46:e6:9a:8d:85:13:fb:7b:d0:03:2f:28:
        9e:6f:5e:6b:44:20:54:ff:72:d1:c0:34:b5:cf:ba:ec:f5:a9:
        e0:53:3a:65:81:83:43:32:fe:e9:a0:97:68:6d:f5:63:b9:0f:
        56:78:04:2f:4e:67:bd:39:d7:5e:d0:82:f2:2f:1d:35:15:1f:
        35:9c:ee:9a:49:14:21:a5:b5:3f:39:03:87:48:63:78:d0:7c:
        4b:d0:84:05:24:5d:48:61:b4:10:80:06:09:5d:f2:86:97:2e:
        eb:f1:cd:f8:8b:d7:a3:f7:f4:53:28:45:10:cd:f2:5d:fe:db:
        3a:6d:8b:de:92:32:8c:4b:2e:23:65:e5:20:9f:0b:0d:f8:6d:
        a2:d9:4f:fb:d9:e5:12:55:f7:5d:8b:6e:94:b0:76:e0:d6:04:
        71:9c:cd:6e:92:d5:4b:31:89:0d:e3:96:34:7c:e3:6a:1b:6d:
        b8:4f:21:cd:22:78:ad:8a:39:48:13:b3:ab:e5:32:70:b5:8d:
        a1:53:a5:59:68:d1:32:c3:a2:67:86:36:e1:69:51:d0:b9:9a:
        2e:c8:56:cc:fe:4b:82:d7:60:4c:11:b7:a6:7c:d9:c6:95:b1:
        78:e7:ad:ee:9d:f2:b0:24:ea:f2:47:43:44:ae:c4:bd:a3:9a:
        82:b5:9c:2e:b4:24:69:15:87:36:2b:7d:b6:f0:21:d6:43:ec:
        0e:9d:aa:3e:3e:02:ab:fa:29:e2:41:72:5c:d0:63:2c:31:0d:
        07:2b:79:cf:98:49:81:b1:ed:8c:26:86:33:a0:24:7c:b3:9d:
        90:c8:b3:ec:fb:73:2d:61
-----BEGIN CERTIFICATE-----
MIIGPzCCBCegAwIBAgIBATANBgkqhkiG9w0BAQsFADCBkzEmMCQGA1UEAwwdTXkg
Um9vdCBDZXJ0aWZpY2F0ZSBBdXRob3JpdHkxDDAKBgNVBAgMA05TVzELMAkGA1UE
BhMCQVUxIjAgBgkqhkiG9w0BCQEWE3N1cHBvcnRAZXhhbXBsZS5jb20xFDASBgNV
BAoMC0V4YW1wbGUgT3JnMRQwEgYDVQQLDAtEZXZlbG9wbWVudDAeFw0yNTAxMTAx
NzQxNTlaFw0zMDAxMDkxNzQxNTlaMIGKMRUwEwYDVQQDDAx2YXVsdF9zZXJ2ZXIx
GDAWBgNVBAgMD05ldyBTb3V0aCBXYWxlczELMAkGA1UEBhMCQVUxIDAeBgkqhkiG
9w0BCQEWEXN1cHBvcnRAY3JhenkuY29tMRIwEAYDVQQKDAlDcmF6eSBPcmcxFDAS
BgNVBAsMC0RldmVsb3BtZW50MIICIjANBgkqhkiG9w0BAQEFAAOCAg8AMIICCgKC
AgEAu3pgpflB5uSluI8u3+0T08nGEiSXI8/z0gn+owrSzd8yZjceVK35n25WiW8+
YLLSDtDL+C05bl7CWxydq+QXZb+V/gQVli8oUc/cYavaBL6VbgW1VKjVjN2ZurDK
C+UAJiMpI+1PpH3fdUqkY1ASNsCBuXPmIDYPvUdq6W1sMGSc393CI7i45+v5Mylg
aYrdpnPV7JdIpyvAez8YeaG5aFHxTzjuQl9JQ4Bf+jiGRNdWeZsKMHxnVzMxv6hn
9tkYYAzqWMFEGXMtC6HUSM82YYjpqHBF6Ul7F1CvsABT7M8BxhX98gifcRgeO2KE
O0HD9Mwr8nq1uOWonsvv1panyD9WqL03jexaW7vOGfVsb0z7zquemM4bWAt0DDav
jU2TINw2KeBMF0JETjM308e0EcO9KZZKf05CF+xolNBp859LfnBbn33WpVkqmOUp
eO0GJTHk33VhnUhzFUUjePYCNHkSnf/p7Rd+xdy3uXtQ5xjIlDpDFf1U5qPWTrVK
G9M7VxiJugEq+bUEmEsgw4400KpN7vXquPxpo1cv7YfSSDPwrAwmUMJQwkIoDj/h
a5YIODPYm6FBJkyy3WlCLxxvq1CBnI8XBU92iHa2eY1c57ptDVTHYQWK0FSn7BzA
WhhDM0Lnyyc0mYzU66algf/W1qdgkCKCKiqDHLvCNtanW6ECAwEAAaOBpDCBoTAJ
BgNVHRMEAjAAMAsGA1UdDwQEAwIF4DAdBgNVHSUEFjAUBggrBgEFBQcDAQYIKwYB
BQUHAwIwKAYDVR0RBCEwH4IJbG9jYWxob3N0ggx2YXVsdF9zZXJ2ZXKHBH8AAAEw
HQYDVR0OBBYEFFbSE2/wpdg+fEiZG1cfHiosrMA7MB8GA1UdIwQYMBaAFJmMmAFc
/dMKkSq49zdcEtekawmVMA0GCSqGSIb3DQEBCwUAA4ICAQAEkNzjjdhwEYly6Seq
Su2zno/wetbugJlyG5GvrO65c1qlNW33WqrvrX/36scecOKm978LJizYAWcxWf+9
XVFxfAZFe6f2SS1IT0x2ePgmZszLSeJ65XfUXCkgROZ0kmCGbh4hCDeFWwKaAQEE
uWK5BcvPRHC2kYza1mYXkaOn+eygwwcKrgZJ1hXV/Tbu/uduouIcWJIbVZVpKHZO
gsY6Sthf1QCxiYBGxMgnMDqXo4ly6kT0NPTDC7OZV2Cq35bOKEPDy1yIjLYRPnVG
5pqNhRP7e9ADLyieb15rRCBU/3LRwDS1z7rs9angUzplgYNDMv7poJdobfVjuQ9W
eAQvTme9Odde0ILyLx01FR81nO6aSRQhpbU/OQOHSGN40HxL0IQFJF1IYbQQgAYJ
XfKGly7r8c34i9ej9/RTKEUQzfJd/ts6bYvekjKMSy4jZeUgnwsN+G2i2U/72eUS
Vfddi26UsHbg1gRxnM1uktVLMYkN45Y0fONqG224TyHNInitijlIE7Or5TJwtY2h
U6VZaNEyw6JnhjbhaVHQuZouyFbM/kuC12BMEbemfNnGlbF4563unfKwJOryR0NE
rsS9o5qCtZwutCRpFYc2K3228CHWQ+wOnao+PgKr+iniQXJc0GMsMQ0HK3nPmEmB
se2MJoYzoCR8s52QyLPs+3MtYQ==
-----END CERTIFICATE-----
-----BEGIN CERTIFICATE-----
MIIF5TCCA82gAwIBAgIUeN1oZOUql9pzdZX+Q/HvRCzKaUIwDQYJKoZIhvcNAQEL
BQAwgZMxJjAkBgNVBAMMHU15IFJvb3QgQ2VydGlmaWNhdGUgQXV0aG9yaXR5MQww
CgYDVQQIDANOU1cxCzAJBgNVBAYTAkFVMSIwIAYJKoZIhvcNAQkBFhNzdXBwb3J0
QGV4YW1wbGUuY29tMRQwEgYDVQQKDAtFeGFtcGxlIE9yZzEUMBIGA1UECwwLRGV2
ZWxvcG1lbnQwHhcNMjUwMTEwMTc0MTU1WhcNMzAwMTA5MTc0MTU1WjCBkzEmMCQG
A1UEAwwdTXkgUm9vdCBDZXJ0aWZpY2F0ZSBBdXRob3JpdHkxDDAKBgNVBAgMA05T
VzELMAkGA1UEBhMCQVUxIjAgBgkqhkiG9w0BCQEWE3N1cHBvcnRAZXhhbXBsZS5j
b20xFDASBgNVBAoMC0V4YW1wbGUgT3JnMRQwEgYDVQQLDAtEZXZlbG9wbWVudDCC
AiIwDQYJKoZIhvcNAQEBBQADggIPADCCAgoCggIBAK8mkDoXwRQoNmfinw9xOh7y
F4AEhZ7zjbA9+UgcyBxhFbS17f5YH5XUd96yjdVYY/BRxdEGRox+Aoiud9LAjYwu
h/xiJw9WxcThVwsARlrjN7Pn8/WCkpxYNU7NJHDc5R7GiiUeq04X5lPY8gazY85X
Z5fJFb1i8Ei3FWXs4EXDstSRbsfy2y6KJpTbHD9p/c//dHDxjXysLxb/sB0NnnOX
FhrZpV/Z8ekBfb/Sjv/EJILd53sh4/pdXcUtNkDmGXI9NWWh4OeoB4ZFjlEZ7aFA
ukzenHhLSUmz0sJcmo4c2zNlRlt0F6U18wrbU2xQUT8YBE/st5WgfmfIUeqVlQ1F
fNUKWjmO2kaikJJk11QxaM1KRVXbguFMyNmtC5ryRA29AdM6RUozG8Goe4QzEhg9
UXovlX5Kcdd1vyNtOOmmS2RrdyxNz+JjQrKhqy9LMwlYMjju/V/9GoaMO9dPGtiv
vHUUUeBfPwiCr3K+sTQUEAEIdbOrTOHdsYm8PaoClZCeiITMgV+R5wk9TrTPx1pP
cEnTrQLTK03a08VEKAXHEcZRfIrFYhhV72jcGACj0cnw82MUDUBe5xHw6BaTcSt2
2zxdv19BXjmOASrNCIlAZEE0WVAWlnFVRqLXUwheNCJM0eAcxWGOb4IWp0ql9Zkc
Jry+bI/njrO0ujZp38ZPAgMBAAGjLzAtMAwGA1UdEwQFMAMBAf8wHQYDVR0OBBYE
FJmMmAFc/dMKkSq49zdcEtekawmVMA0GCSqGSIb3DQEBCwUAA4ICAQBp1wHNFZT6
6wLXeCK0/ym7GlR/fXY2lWFgvEBdihWpk2K1K2IgucLeMgohABVL1x88hKmjTwqf
5wCQBurFekQsNR8E5QA8HPvPj1RSc5PeZaMmWBLQwdXFXuFLv03ARPo5PZADfWLW
R5XcUJ/owXspVyORB5Lf3EggbLSHSKaB7Nb50VB9lBEDdZTWTa+UzLtAjRKi5Iqx
eknMJpsZRwBmEavhWkBkoBwbRNET4uWrm13KFceeezP6PcdPdu4r9jtSGRpWGi9F
JPimNtr2KgitPGxdyZsC7hFSWmZ+4SymtfLRfqkRbqphNNeEAMBcJSjhlSWZS0J+
hRnvOzoltrxLx3lFUczTI7q82/yhUVW5l1idBOfirP1zXIeomA5WFNPNjnBv1eFF
vp9n4uUarpylMrEPY0SX1zAhKctTFK1y6idp8Upcwv30g8TYNCk3A0GUcJTB2u1V
WahsnbNlLYuJrapeI+6s7QnfwQEdEdXRhRl/vwe3ky6Tj1Va/a9WYej+++VLx1kF
eyyylDhecEiuyL9XnEo8+to4LL55jqFZEsLLm7ex+j3sxcyNeeVwNvK88XUYk1/P
DgVkst/WWXSM3mPcnNo6+f2OhuZMLBJQKlJNsnYXwYGSkxwuWDuHuWUmdvloBCz4
7/JkMvoS7zIn/Z7LqLX41JF4kVht+JwAKg==
-----END CERTIFICATE-----
