Certificate:
    Data:
        Version: 3 (0x2)
        Serial Number: 1 (0x1)
        Signature Algorithm: sha256WithRSAEncryption
        Issuer: CN=Intermediate Certificate Authority, C=AU/emailAddress=support@security.com, O=Security Organization, ST=New South Wales, OU=Certificate Authority
        Validity
            Not Before: Jan 14 00:09:17 2025 GMT
            Not After : Jan 14 00:09:17 2027 GMT
        Subject: CN=vault_server, C=AU/emailAddress=support@crazy.com, O=Crazy Org, ST=New South Wales, OU=Development
        Subject Public Key Info:
            Public Key Algorithm: rsaEncryption
                Public-Key: (4096 bit)
                Modulus:
                    00:a7:80:28:40:5e:81:87:d5:4f:82:93:90:27:52:
                    0a:9b:51:07:1e:75:ab:25:7f:96:c0:ab:12:6d:9d:
                    c9:51:c0:5b:a0:29:11:47:61:e1:83:de:60:d0:8e:
                    00:18:50:0e:db:42:a7:f1:6d:52:1e:71:94:3f:13:
                    45:1f:a5:25:29:18:99:aa:2b:36:cf:84:0f:29:b0:
                    b1:01:45:20:af:80:a4:3b:68:a1:5e:31:cd:e5:52:
                    63:b4:45:23:37:f7:83:97:c2:da:8e:45:50:1c:29:
                    1a:1a:f5:46:5f:64:da:83:2b:c6:eb:38:ee:43:7e:
                    ae:a8:41:bc:48:69:ea:36:70:8e:c0:24:d6:25:fc:
                    0d:aa:de:cf:71:14:21:7b:0b:8a:c6:6f:02:10:c9:
                    01:5e:95:4a:70:6c:aa:be:cf:be:06:85:cc:dd:cb:
                    f5:69:03:34:85:d9:d3:6d:86:c0:25:d6:53:66:76:
                    fc:55:62:db:c6:ef:75:34:5d:ba:7a:4f:ce:cb:c8:
                    63:c0:62:4f:81:cc:54:38:8b:fe:e8:dd:a8:9b:6c:
                    6f:e1:a8:f5:a5:ac:03:95:2d:55:d2:e2:fd:da:f9:
                    95:3e:ec:fc:e8:fd:b1:cc:06:2f:c8:43:bd:f8:35:
                    b0:2f:f7:9e:5f:e5:00:e7:4d:d7:08:39:2b:a7:35:
                    4f:fd:b8:d8:e7:25:d6:97:52:2d:45:56:b7:34:17:
                    ec:83:ce:79:56:0c:d0:4f:4d:5c:92:63:68:9d:d5:
                    76:9a:84:9a:3c:ce:36:f7:6f:21:79:b1:2b:42:15:
                    08:54:ee:79:61:c5:7d:3f:22:88:a7:b1:92:25:f5:
                    4c:08:68:96:f4:1c:aa:fb:66:ca:22:93:72:a6:ff:
                    72:1b:fd:e9:55:21:6d:6e:d3:da:6b:b0:d5:7b:ae:
                    b2:d6:1e:4b:70:b3:5a:6f:bb:9f:2f:44:ce:4b:76:
                    3f:07:df:fc:04:a5:6f:74:bf:3b:a6:c2:d0:e8:b2:
                    fb:ff:14:03:05:8b:d3:3e:8c:3c:f5:76:a1:b1:89:
                    95:42:0a:42:af:62:eb:d7:67:ca:e3:20:12:90:7e:
                    91:c1:ef:6c:6d:c7:59:a8:9a:18:1a:88:30:6c:10:
                    0f:c0:bb:e1:d5:85:9c:f2:16:c2:8b:21:09:f5:34:
                    3d:28:6d:4e:21:f8:ad:25:10:ef:5c:22:0d:16:a3:
                    04:53:92:54:4c:18:0f:4f:b3:9d:40:a4:40:01:9f:
                    fb:f0:bf:5e:e9:90:8e:23:e3:55:fc:68:12:e6:17:
                    a1:27:32:ed:15:8a:3a:0b:2b:64:4d:c2:00:e5:74:
                    8d:35:dd:d7:50:67:42:e2:a6:b1:36:fb:17:44:dc:
                    4f:03:35
                Exponent: 65537 (0x10001)
        X509v3 extensions:
            X509v3 Basic Constraints: 
                CA:FALSE
            X509v3 Key Usage: 
                Digital Signature, Key Encipherment
            X509v3 Extended Key Usage: 
                TLS Web Server Authentication, TLS Web Client Authentication
            X509v3 Subject Key Identifier: 
                05:EF:75:62:8E:DF:37:05:E9:11:72:37:E8:B8:A2:6F:91:8B:A9:EC
            X509v3 Authority Key Identifier: 
                4A:5B:FA:1E:0D:84:04:B4:C7:7E:23:42:FF:31:D7:A2:4F:CE:CD:11
            X509v3 Subject Alternative Name: 
                DNS:localhost, DNS:vault_server, IP Address:127.0.0.1
    Signature Algorithm: sha256WithRSAEncryption
    Signature Value:
        3d:f5:de:16:57:2a:cf:e5:c7:63:dc:c0:ad:8a:60:b1:57:8c:
        d2:81:c4:0d:ff:83:a5:0d:ed:40:74:c1:5c:2d:c7:dc:77:be:
        f7:68:7d:17:fb:b6:dd:81:7f:6e:75:23:2d:c6:87:e3:b5:ee:
        fa:42:96:f0:7c:1b:1e:db:fd:73:6d:bc:40:cb:14:8e:16:a7:
        25:f5:95:14:52:9b:4c:58:82:89:24:41:a2:29:a2:c9:55:04:
        75:63:3e:06:d5:bf:d2:9f:cb:b7:48:01:fa:93:f2:34:c7:e4:
        c5:f3:a8:e1:0f:ae:e7:bb:0c:5e:1f:ab:96:11:96:3c:dc:28:
        8f:60:fc:c9:85:77:6d:cd:f1:8a:81:12:b6:44:9c:5f:83:6c:
        5f:c0:34:18:d6:d3:7b:88:aa:f4:42:4b:33:77:30:2c:ba:a8:
        f4:2f:5f:a6:ec:ad:59:b3:8b:27:94:cc:b1:03:6e:68:b6:f5:
        e0:91:6b:f0:00:52:9f:02:f0:22:9b:41:5a:70:d5:af:75:26:
        b3:e0:82:fd:28:2b:b6:e6:d3:89:86:c6:8d:7e:31:d4:be:29:
        f4:05:8c:af:83:ba:2c:57:94:2c:1c:30:30:03:c9:b8:45:dd:
        e1:51:bc:ee:2f:9a:7a:45:ad:46:8f:e8:e6:03:13:90:3c:b4:
        71:68:9e:ec:85:ab:f2:7f:d4:05:6c:b3:75:3e:90:2e:8c:2b:
        26:59:17:50:00:c5:e0:64:d9:1b:f9:4d:45:26:3e:dc:79:e9:
        c1:76:ff:4a:dc:fe:9e:71:af:aa:42:00:c6:51:5b:de:71:2a:
        63:3d:e3:b3:e7:ea:e3:8a:27:dd:56:bc:16:2b:66:97:54:38:
        9a:2c:66:5f:39:ff:31:6a:34:11:fd:ce:55:2b:8f:85:ac:b0:
        f5:67:36:d5:07:f9:63:aa:d8:0d:cb:52:ac:ad:07:e2:ca:87:
        2c:13:0e:b9:d0:48:a9:fb:df:8b:c9:b5:a1:3f:8f:a0:cc:82:
        6b:b0:b4:1a:b6:03:d3:49:a2:fc:ab:90:ef:20:e2:14:3b:f0:
        f1:b6:50:4c:05:08:58:28:91:46:cd:ca:87:bf:1a:12:01:29:
        3b:23:32:d5:03:98:db:8e:21:43:94:d9:05:6d:03:d6:f9:1e:
        3c:0f:62:6f:a8:5c:5a:0b:5b:56:29:de:51:5a:34:60:5f:4e:
        d2:04:7b:a2:3b:3b:fe:14:9d:c9:c2:75:19:13:96:da:a0:ff:
        74:d4:03:c1:bf:f9:5a:b0:ad:6b:01:59:99:73:c2:70:84:43:
        5e:64:3e:8b:12:0e:be:70:3a:63:dd:d6:47:cc:0c:03:b6:d5:
        f6:50:49:28:09:c8:48:78
-----BEGIN CERTIFICATE-----
MIIGZTCCBE2gAwIBAgIBATANBgkqhkiG9w0BAQsFADCBuTErMCkGA1UEAwwiSW50
ZXJtZWRpYXRlIENlcnRpZmljYXRlIEF1dGhvcml0eTELMAkGA1UEBhMCQVUxIzAh
BgkqhkiG9w0BCQEWFHN1cHBvcnRAc2VjdXJpdHkuY29tMR4wHAYDVQQKDBVTZWN1
cml0eSBPcmdhbml6YXRpb24xGDAWBgNVBAgMD05ldyBTb3V0aCBXYWxlczEeMBwG
A1UECwwVQ2VydGlmaWNhdGUgQXV0aG9yaXR5MB4XDTI1MDExNDAwMDkxN1oXDTI3
MDExNDAwMDkxN1owgYoxFTATBgNVBAMMDHZhdWx0X3NlcnZlcjELMAkGA1UEBhMC
QVUxIDAeBgkqhkiG9w0BCQEWEXN1cHBvcnRAY3JhenkuY29tMRIwEAYDVQQKDAlD
cmF6eSBPcmcxGDAWBgNVBAgMD05ldyBTb3V0aCBXYWxlczEUMBIGA1UECwwLRGV2
ZWxvcG1lbnQwggIiMA0GCSqGSIb3DQEBAQUAA4ICDwAwggIKAoICAQCngChAXoGH
1U+Ck5AnUgqbUQcedaslf5bAqxJtnclRwFugKRFHYeGD3mDQjgAYUA7bQqfxbVIe
cZQ/E0UfpSUpGJmqKzbPhA8psLEBRSCvgKQ7aKFeMc3lUmO0RSM394OXwtqORVAc
KRoa9UZfZNqDK8brOO5Dfq6oQbxIaeo2cI7AJNYl/A2q3s9xFCF7C4rGbwIQyQFe
lUpwbKq+z74Ghczdy/VpAzSF2dNthsAl1lNmdvxVYtvG73U0Xbp6T87LyGPAYk+B
zFQ4i/7o3aibbG/hqPWlrAOVLVXS4v3a+ZU+7Pzo/bHMBi/IQ734NbAv955f5QDn
TdcIOSunNU/9uNjnJdaXUi1FVrc0F+yDznlWDNBPTVySY2id1XaahJo8zjb3byF5
sStCFQhU7nlhxX0/IoinsZIl9UwIaJb0HKr7Zsoik3Km/3Ib/elVIW1u09prsNV7
rrLWHktws1pvu58vRM5Ldj8H3/wEpW90vzumwtDosvv/FAMFi9M+jDz1dqGxiZVC
CkKvYuvXZ8rjIBKQfpHB72xtx1momhgaiDBsEA/Au+HVhZzyFsKLIQn1ND0obU4h
+K0lEO9cIg0WowRTklRMGA9Ps51ApEABn/vwv17pkI4j41X8aBLmF6EnMu0VijoL
K2RNwgDldI013ddQZ0LiprE2+xdE3E8DNQIDAQABo4GkMIGhMAkGA1UdEwQCMAAw
CwYDVR0PBAQDAgWgMB0GA1UdJQQWMBQGCCsGAQUFBwMBBggrBgEFBQcDAjAdBgNV
HQ4EFgQUBe91Yo7fNwXpEXI36Liib5GLqewwHwYDVR0jBBgwFoAUSlv6Hg2EBLTH
fiNC/zHXok/OzREwKAYDVR0RBCEwH4IJbG9jYWxob3N0ggx2YXVsdF9zZXJ2ZXKH
BH8AAAEwDQYJKoZIhvcNAQELBQADggIBAD313hZXKs/lx2PcwK2KYLFXjNKBxA3/
g6UN7UB0wVwtx9x3vvdofRf7tt2Bf251Iy3Gh+O17vpClvB8Gx7b/XNtvEDLFI4W
pyX1lRRSm0xYgokkQaIposlVBHVjPgbVv9Kfy7dIAfqT8jTH5MXzqOEPrue7DF4f
q5YRljzcKI9g/MmFd23N8YqBErZEnF+DbF/ANBjW03uIqvRCSzN3MCy6qPQvX6bs
rVmziyeUzLEDbmi29eCRa/AAUp8C8CKbQVpw1a91JrPggv0oK7bm04mGxo1+MdS+
KfQFjK+DuixXlCwcMDADybhF3eFRvO4vmnpFrUaP6OYDE5A8tHFonuyFq/J/1AVs
s3U+kC6MKyZZF1AAxeBk2Rv5TUUmPtx56cF2/0rc/p5xr6pCAMZRW95xKmM947Pn
6uOKJ91WvBYrZpdUOJosZl85/zFqNBH9zlUrj4WssPVnNtUH+WOq2A3LUqytB+LK
hywTDrnQSKn734vJtaE/j6DMgmuwtBq2A9NJovyrkO8g4hQ78PG2UEwFCFgokUbN
yoe/GhIBKTsjMtUDmNuOIUOU2QVtA9b5HjwPYm+oXFoLW1Yp3lFaNGBfTtIEe6I7
O/4UncnCdRkTltqg/3TUA8G/+VqwrWsBWZlzwnCEQ15kPosSDr5wOmPd1kfMDAO2
1fZQSSgJyEh4
-----END CERTIFICATE-----
Certificate:
    Data:
        Version: 3 (0x2)
        Serial Number: 1 (0x1)
        Signature Algorithm: sha256WithRSAEncryption
        Issuer: CN=Root Certificate Authority, C=AU/emailAddress=support@security.com, ST=New South Wales, O=Security Organization, OU=Certificate Authority
        Validity
            Not Before: Jan 14 00:09:14 2025 GMT
            Not After : Jan  9 00:09:14 2045 GMT
        Subject: CN=Intermediate Certificate Authority, C=AU/emailAddress=support@security.com, O=Security Organization, ST=New South Wales, OU=Certificate Authority
        Subject Public Key Info:
            Public Key Algorithm: rsaEncryption
                Public-Key: (4096 bit)
                Modulus:
                    00:ae:4f:f7:80:37:38:c8:9e:d7:96:7b:ec:7e:fd:
                    c1:c3:4f:95:dd:7e:7a:e8:1f:9a:59:fb:55:69:c9:
                    08:71:c7:64:07:0c:5c:5c:b1:7d:b4:b2:12:bd:bf:
                    0e:4a:a0:0e:69:a5:1f:7f:ac:74:f1:dc:c6:f9:d7:
                    2d:e2:bb:0e:ef:c8:8a:03:ef:3b:93:a1:f8:33:20:
                    e5:d5:16:c6:fa:1d:2a:7f:f0:6c:c8:a1:9a:d8:29:
                    2e:83:aa:f8:f2:ee:ea:12:c4:ef:05:c8:43:66:15:
                    f1:5e:df:ef:c3:26:18:b1:5d:08:d8:a5:a2:40:bc:
                    93:5d:77:b9:75:ba:6a:6e:f6:8f:e8:fa:78:b1:ae:
                    41:7a:79:bf:fc:4c:e9:4e:a7:63:21:49:e2:16:dd:
                    c9:fe:7e:57:40:df:f2:92:54:a4:47:a3:5a:49:d2:
                    5a:83:74:f7:ea:10:d4:b5:56:26:46:62:6c:20:6b:
                    30:0b:93:8c:4d:09:98:35:59:96:a4:bb:fc:b3:5d:
                    46:a8:40:e5:22:6b:56:e8:4f:21:12:29:48:bc:29:
                    8b:46:a5:d8:c8:0f:d3:00:92:33:cc:68:e0:54:86:
                    ab:c8:fe:70:14:d0:30:c3:2b:e0:68:f3:01:38:9d:
                    7d:3b:f1:ce:5a:a6:58:73:96:54:49:36:fd:3d:81:
                    65:95:8b:ee:e1:dc:94:3f:53:e7:73:25:ba:20:ea:
                    ed:dd:1a:f6:95:25:52:2b:6f:3f:8b:c6:81:bc:77:
                    2b:67:4b:29:1b:f0:ec:e7:4e:8c:82:86:99:77:bf:
                    53:98:04:b7:2c:83:60:d7:92:82:b1:11:49:4f:fe:
                    55:ec:b7:25:75:33:23:74:b3:9d:76:1c:77:b3:78:
                    75:9d:f1:c5:f6:77:d8:a5:71:32:e4:72:fd:15:bc:
                    8a:76:89:0c:e7:87:e6:83:b0:7d:4a:46:a6:52:47:
                    54:ff:34:2b:90:18:cf:68:fe:b1:ab:b6:b5:ca:90:
                    c1:e2:e5:54:8f:e4:33:6b:11:e8:9b:cf:21:9b:c8:
                    36:c4:d9:09:56:fa:b2:10:01:35:78:70:ec:32:1c:
                    18:a8:df:4f:e6:27:b8:3e:ed:56:24:0a:6c:05:59:
                    2b:a7:06:a9:13:b9:d7:ba:15:f1:59:c2:21:dd:7b:
                    3e:9d:09:38:05:47:7c:a2:6e:ad:1f:95:23:c3:54:
                    44:79:16:82:b1:36:2d:03:6b:6a:90:c6:d6:3d:8e:
                    58:b5:d9:81:34:47:9b:4f:32:b7:82:25:7f:c1:20:
                    94:5c:4e:af:c7:25:fc:6a:56:5c:d2:ae:d7:7a:1f:
                    2a:4a:05:69:30:5d:46:7e:d6:37:d7:d2:12:56:ae:
                    9d:fc:9f
                Exponent: 65537 (0x10001)
        X509v3 extensions:
            X509v3 Basic Constraints: critical
                CA:TRUE, pathlen:1
            X509v3 Key Usage: critical
                Certificate Sign, CRL Sign
            Authority Information Access: 
                OCSP - URI:http://ocsp.security.com
            X509v3 CRL Distribution Points: 
                Full Name:
                  URI:http://crl.security.com/root-ca.crl
            X509v3 Subject Key Identifier: 
                4A:5B:FA:1E:0D:84:04:B4:C7:7E:23:42:FF:31:D7:A2:4F:CE:CD:11
            X509v3 Authority Key Identifier: 
                01:05:06:6C:FE:19:83:03:7D:42:6E:06:72:3E:2C:28:DB:38:3C:7D
    Signature Algorithm: sha256WithRSAEncryption
    Signature Value:
        89:6c:e9:f9:b6:85:a1:84:fd:ff:05:f6:12:1b:fb:ef:91:e2:
        4e:80:38:5c:a1:6a:43:a9:d6:48:02:5c:12:a8:dd:95:2d:64:
        0e:3c:f1:4d:0b:03:61:fd:5b:1c:6b:89:7e:c3:8e:d5:e5:55:
        37:ce:15:a3:f7:6b:86:18:88:39:4d:57:a4:7b:b0:58:2f:23:
        03:14:d8:ab:0e:1a:13:c3:cc:6b:ff:8d:8d:fa:ba:5f:e4:e7:
        9a:6a:bb:b1:30:1d:97:f8:95:db:16:df:02:c6:b5:e4:32:bf:
        7a:e3:26:6c:a1:95:74:3b:11:05:7d:95:ea:cb:e2:3a:ab:01:
        d4:0a:4a:8b:7f:2a:39:43:86:ad:c8:35:51:a4:75:92:91:e8:
        f8:9d:16:a7:c4:f4:4c:52:9f:45:aa:4f:24:09:23:c3:92:cd:
        a6:45:56:00:6f:65:eb:6d:fd:ca:23:4f:c3:d9:ec:11:f6:96:
        67:89:68:21:bd:ac:f6:e4:93:6e:bf:44:98:79:04:bf:26:23:
        be:45:a2:12:40:cb:2f:e8:16:fa:1e:72:f8:f1:89:bd:22:e5:
        ad:f3:c7:fd:58:43:e8:07:ea:79:f7:49:33:37:83:b3:80:5f:
        23:d8:81:c8:9f:b4:f9:88:3b:51:cb:dc:80:b1:b9:2e:60:ae:
        de:d3:0d:f6:b7:f9:94:74:34:1a:c9:c7:f9:7a:16:cd:ac:23:
        8b:74:37:0c:a4:a9:7c:e1:90:70:4e:f1:81:7f:88:a9:4a:28:
        e5:01:48:9b:01:2e:c2:c4:6e:dc:e0:17:47:55:21:3e:45:82:
        32:95:02:d1:5f:d2:f2:c2:7b:74:46:8e:5a:5f:2e:48:ed:e5:
        e1:1f:e0:cb:cb:6e:1e:cc:1e:79:d6:00:18:31:98:a9:d3:23:
        a4:78:f8:e8:3c:c7:bd:a1:49:8c:24:b7:f4:74:b9:3b:5e:df:
        5a:0c:59:b4:d3:ed:52:b6:5f:7e:58:84:25:b7:8e:7d:7b:a5:
        a0:04:e5:65:65:ef:4c:75:0f:16:03:b7:ec:e8:e0:e4:23:17:
        00:53:fc:30:ca:c4:a4:80:83:e6:d3:22:d0:67:8c:0d:05:47:
        3c:8c:8f:d2:56:51:3a:43:e8:6b:c2:02:72:bd:ea:6e:f0:8a:
        0b:bc:9c:29:0f:c6:83:1a:d7:84:f5:b9:8c:95:15:f1:9d:c9:
        96:66:96:2a:1e:d2:90:7b:84:8f:7b:13:3d:49:9c:b9:fc:10:
        e4:aa:95:06:39:09:f3:72:6e:11:df:4a:f2:46:12:b7:d7:2b:
        86:b5:60:d6:2c:25:74:02:cf:4b:16:1c:86:c2:ef:5b:e3:60:
        52:04:78:bb:b6:c6:91:aa
-----BEGIN CERTIFICATE-----
MIIGuzCCBKOgAwIBAgIBATANBgkqhkiG9w0BAQsFADCBsTEjMCEGA1UEAwwaUm9v
dCBDZXJ0aWZpY2F0ZSBBdXRob3JpdHkxCzAJBgNVBAYTAkFVMSMwIQYJKoZIhvcN
AQkBFhRzdXBwb3J0QHNlY3VyaXR5LmNvbTEYMBYGA1UECAwPTmV3IFNvdXRoIFdh
bGVzMR4wHAYDVQQKDBVTZWN1cml0eSBPcmdhbml6YXRpb24xHjAcBgNVBAsMFUNl
cnRpZmljYXRlIEF1dGhvcml0eTAeFw0yNTAxMTQwMDA5MTRaFw00NTAxMDkwMDA5
MTRaMIG5MSswKQYDVQQDDCJJbnRlcm1lZGlhdGUgQ2VydGlmaWNhdGUgQXV0aG9y
aXR5MQswCQYDVQQGEwJBVTEjMCEGCSqGSIb3DQEJARYUc3VwcG9ydEBzZWN1cml0
eS5jb20xHjAcBgNVBAoMFVNlY3VyaXR5IE9yZ2FuaXphdGlvbjEYMBYGA1UECAwP
TmV3IFNvdXRoIFdhbGVzMR4wHAYDVQQLDBVDZXJ0aWZpY2F0ZSBBdXRob3JpdHkw
ggIiMA0GCSqGSIb3DQEBAQUAA4ICDwAwggIKAoICAQCuT/eANzjInteWe+x+/cHD
T5XdfnroH5pZ+1VpyQhxx2QHDFxcsX20shK9vw5KoA5ppR9/rHTx3Mb51y3iuw7v
yIoD7zuTofgzIOXVFsb6HSp/8GzIoZrYKS6Dqvjy7uoSxO8FyENmFfFe3+/DJhix
XQjYpaJAvJNdd7l1umpu9o/o+nixrkF6eb/8TOlOp2MhSeIW3cn+fldA3/KSVKRH
o1pJ0lqDdPfqENS1ViZGYmwgazALk4xNCZg1WZaku/yzXUaoQOUia1boTyESKUi8
KYtGpdjID9MAkjPMaOBUhqvI/nAU0DDDK+Bo8wE4nX078c5aplhzllRJNv09gWWV
i+7h3JQ/U+dzJbog6u3dGvaVJVIrbz+LxoG8dytnSykb8OznToyChpl3v1OYBLcs
g2DXkoKxEUlP/lXstyV1MyN0s512HHezeHWd8cX2d9ilcTLkcv0VvIp2iQznh+aD
sH1KRqZSR1T/NCuQGM9o/rGrtrXKkMHi5VSP5DNrEeibzyGbyDbE2QlW+rIQATV4
cOwyHBio30/mJ7g+7VYkCmwFWSunBqkTude6FfFZwiHdez6dCTgFR3yibq0flSPD
VER5FoKxNi0Da2qQxtY9jli12YE0R5tPMreCJX/BIJRcTq/HJfxqVlzSrtd6HypK
BWkwXUZ+1jfX0hJWrp38nwIDAQABo4HTMIHQMBIGA1UdEwEB/wQIMAYBAf8CAQEw
DgYDVR0PAQH/BAQDAgEGMDQGCCsGAQUFBwEBBCgwJjAkBggrBgEFBQcwAYYYaHR0
cDovL29jc3Auc2VjdXJpdHkuY29tMDQGA1UdHwQtMCswKaAnoCWGI2h0dHA6Ly9j
cmwuc2VjdXJpdHkuY29tL3Jvb3QtY2EuY3JsMB0GA1UdDgQWBBRKW/oeDYQEtMd+
I0L/MdeiT87NETAfBgNVHSMEGDAWgBQBBQZs/hmDA31CbgZyPiwo2zg8fTANBgkq
hkiG9w0BAQsFAAOCAgEAiWzp+baFoYT9/wX2Ehv775HiToA4XKFqQ6nWSAJcEqjd
lS1kDjzxTQsDYf1bHGuJfsOO1eVVN84Vo/drhhiIOU1XpHuwWC8jAxTYqw4aE8PM
a/+Njfq6X+Tnmmq7sTAdl/iV2xbfAsa15DK/euMmbKGVdDsRBX2V6sviOqsB1ApK
i38qOUOGrcg1UaR1kpHo+J0Wp8T0TFKfRapPJAkjw5LNpkVWAG9l6239yiNPw9ns
EfaWZ4loIb2s9uSTbr9EmHkEvyYjvkWiEkDLL+gW+h5y+PGJvSLlrfPH/VhD6Afq
efdJMzeDs4BfI9iByJ+0+Yg7UcvcgLG5LmCu3tMN9rf5lHQ0GsnH+XoWzawji3Q3
DKSpfOGQcE7xgX+IqUoo5QFImwEuwsRu3OAXR1UhPkWCMpUC0V/S8sJ7dEaOWl8u
SO3l4R/gy8tuHsweedYAGDGYqdMjpHj46DzHvaFJjCS39HS5O17fWgxZtNPtUrZf
fliEJbeOfXuloATlZWXvTHUPFgO37Ojg5CMXAFP8MMrEpICD5tMi0GeMDQVHPIyP
0lZROkPoa8ICcr3qbvCKC7ycKQ/GgxrXhPW5jJUV8Z3JlmaWKh7SkHuEj3sTPUmc
ufwQ5KqVBjkJ83JuEd9K8kYSt9crhrVg1iwldALPSxYchsLvW+NgUgR4u7bGkao=
-----END CERTIFICATE-----
-----BEGIN CERTIFICATE-----
MIIGpTCCBI2gAwIBAgIUEcYiP+gOaCxM5bB0n3GS8knBXc0wDQYJKoZIhvcNAQEL
BQAwgbExIzAhBgNVBAMMGlJvb3QgQ2VydGlmaWNhdGUgQXV0aG9yaXR5MQswCQYD
VQQGEwJBVTEjMCEGCSqGSIb3DQEJARYUc3VwcG9ydEBzZWN1cml0eS5jb20xGDAW
BgNVBAgMD05ldyBTb3V0aCBXYWxlczEeMBwGA1UECgwVU2VjdXJpdHkgT3JnYW5p
emF0aW9uMR4wHAYDVQQLDBVDZXJ0aWZpY2F0ZSBBdXRob3JpdHkwHhcNMjUwMTE0
MDAwOTExWhcNNDUwMTA5MDAwOTExWjCBsTEjMCEGA1UEAwwaUm9vdCBDZXJ0aWZp
Y2F0ZSBBdXRob3JpdHkxCzAJBgNVBAYTAkFVMSMwIQYJKoZIhvcNAQkBFhRzdXBw
b3J0QHNlY3VyaXR5LmNvbTEYMBYGA1UECAwPTmV3IFNvdXRoIFdhbGVzMR4wHAYD
VQQKDBVTZWN1cml0eSBPcmdhbml6YXRpb24xHjAcBgNVBAsMFUNlcnRpZmljYXRl
IEF1dGhvcml0eTCCAiIwDQYJKoZIhvcNAQEBBQADggIPADCCAgoCggIBAKJUPbks
mfZFutxd5ApaiS4kMjZofiCng81JUR/DW+rT2u547HrNpVAMeg7SJEAA7pDiAlge
+shqYh23JVpppW+GSQGwpivfk3UIq1oZS4ugXk0Cko9tRDIG0OPO0ZgaTKBWIyRW
8WJafLjiI1fz16LTK44RJelZqK7wduZxQ+LuXQ0MtQ85u1Ij2FnuPoa2ZUXS/Nm/
6ntkkMo0HJehoQplo8ryN9/XqKaZFzkHiUNCcoGOcxM8YL0J7wzX+FKBEr7OYgUV
4yFvdlw3LD381T33yqGGB4jLE/KaX2ATEUM9HKbMFbvA4TQUfSzab/q8gyaoEyN6
1QkJ/mbE7KYmthlv7dsa0RWALJYyiylOtQkarCOz7yto2pvYjBdjijtrfz3mnDD8
AetakhcU0g3IJYLoceagBKupCzc6iuU9UCcQNUTqv+19+dn9IovzUf0kKST4+Zq1
i8xsL2AiA02pm6fpVZkrXwf+KjUSy0HDFxbEQbBHYxvmfSBldZalyi9nAvfwi3M5
MdUaQ6/9cUV4D0Lb06WUi0EDJZyOz/UG9B5g65LvKeD29C28+moVRYYfAOl7aAk4
aMjZgZC4pAQzgXJ+OGf+pAJkApCD4nYvDFGkRaqRiZgGIhY+hp1NSGpmYgwoHQem
M1zCH7bcGFMLzDzi3dwA7UV7ijbZ1OTyQr+LAgMBAAGjgbIwga8wEgYDVR0TAQH/
BAgwBgEB/wIBATAOBgNVHQ8BAf8EBAMCAQYwNAYIKwYBBQUHAQEEKDAmMCQGCCsG
AQUFBzABhhhodHRwOi8vb2NzcC5zZWN1cml0eS5jb20wNAYDVR0fBC0wKzApoCeg
JYYjaHR0cDovL2NybC5zZWN1cml0eS5jb20vcm9vdC1jYS5jcmwwHQYDVR0OBBYE
FAEFBmz+GYMDfUJuBnI+LCjbODx9MA0GCSqGSIb3DQEBCwUAA4ICAQBJB2aHQlMe
GhFg1q6ihvR0FF7mQeKO8EDY0CYH1exLUYaLBZVAT39h7PpgwvABPjJm43ez0cWO
DPR3PR9hRJB+xXAA4SGge9KnumuHs+jzkokmChgHtiMQIsBvHBy/8t/W6MMk7gRq
5HoaDLCrvHwY+Lf0Z8RIKFfgG5Njkqs1JQZRCCCY9t87SZHbP1/5sQeJlZGQ05ID
OXcsaX4wM1ZkQ2C1zeyaPeh+7Nk4IM6e+gkC5O2Yd1z29GE54U+ioONTbEkozFyM
1b9aey5rUPY3MNOOVQkoHVZzAl8uwO/lMc5/X7/vHCzjoAr/7iKC066i30LA/Xeg
j70RkrIoD3X8P+9F8FYG6jO3TOS9OmFyS8VqwKFZIKnh+GljtmqqNngyZyb2HmC1
okh5DTPRSVw3dREP/3rEYCI+T8+iTL96hNvjWXz5aHl8LmSXKYXbknsXIdrJztMY
oPqaBMHJRgUOh7mXA1ZFe3Dd8d109AB2lEmNB3CBbAjeslSULni+1DQYxYt7fvCL
Ilmd/lrg7v2omlEitkyNf64ddgaIfRivchHoOtErfTFnCCkl8tKcbunDxxvQZwCj
3X9dPMXJrhgfL5Km3YwlmXMDJfjiLRzDf06I1unH6TeZTQJfOjyMYGP0FLbiWoCZ
rZCnq7uM+5TYj59aAD0EV8KRD0Zx9j7LTw==
-----END CERTIFICATE-----
