Certificate:
    Data:
        Version: 3 (0x2)
        Serial Number: 1 (0x1)
        Signature Algorithm: sha256WithRSAEncryption
        Issuer: CN=My Root Certificate Authority, ST=NSW, C=AU/emailAddress=support@example.com, O=Example Org, OU=Development
        Validity
            Not Before: Jan 10 13:04:05 2025 GMT
            Not After : Jan  9 13:04:05 2030 GMT
        Subject: CN=localhost, ST=New South Wales, C=AU/emailAddress=support@crazy.com, O=Crazy Org, OU=Development
        Subject Public Key Info:
            Public Key Algorithm: rsaEncryption
                Public-Key: (4096 bit)
                Modulus:
                    00:c7:31:2d:eb:6a:b2:57:f0:89:92:3f:cf:84:1e:
                    39:a3:73:fd:02:1e:d7:22:b3:2c:76:15:3c:90:25:
                    49:1c:d4:9e:ab:5f:fb:9e:44:fd:dd:9f:da:84:a4:
                    45:f1:75:b6:5e:05:46:b3:93:18:96:f8:35:ff:2f:
                    44:a8:bf:62:64:28:bb:9b:dd:91:33:08:7b:e2:bc:
                    84:fb:06:ff:6d:39:9c:3c:7c:67:31:72:31:07:f2:
                    4c:23:55:76:2c:d4:cd:2e:33:90:42:56:e0:fc:0f:
                    55:99:82:89:1b:da:4b:79:c7:ad:a0:88:f0:a9:4a:
                    ae:36:60:0c:50:53:82:c5:ab:fb:4f:6c:cc:1a:c3:
                    c0:75:8b:c2:7c:6c:a7:92:f8:3c:7f:d4:2a:e8:9a:
                    09:9d:7f:79:c1:d0:ff:36:9a:f5:1e:bc:4b:37:90:
                    1c:27:fd:c2:31:ad:99:d0:f1:4f:84:66:4b:ba:90:
                    70:22:ab:e4:2f:97:a2:62:e3:e1:49:4f:99:15:de:
                    30:30:59:46:1d:5e:f0:ee:14:f0:77:0a:cd:b5:25:
                    86:90:76:7c:51:ca:9f:c9:1a:39:29:a4:aa:ea:2c:
                    e6:e5:17:83:20:9a:92:73:83:c4:ab:e1:ca:ea:d5:
                    3a:6a:ba:57:41:50:a3:f3:e7:fd:1b:4e:1e:f6:33:
                    c2:ff:b9:a6:30:1f:8d:63:a0:4c:a7:fb:bc:f1:79:
                    b3:5d:78:06:8c:09:79:66:49:8b:7e:3f:45:13:ca:
                    df:54:15:2e:ff:12:70:74:7a:b6:b0:a8:50:18:08:
                    bd:ad:f1:2b:c8:d4:1c:45:3d:4b:d6:5a:ea:04:10:
                    8e:44:8f:00:8e:f4:a0:b8:2c:5c:5a:84:b6:08:5c:
                    cd:58:d8:58:a2:5f:d4:ed:b4:3e:de:f8:85:34:42:
                    16:2c:0c:86:0c:5c:d1:00:b0:47:b1:23:88:0e:5c:
                    99:c5:95:cb:5f:0e:bb:44:ff:75:58:4f:26:90:e5:
                    a5:3b:64:4c:d8:af:55:6b:18:81:7a:f5:4a:ee:ec:
                    5f:e1:b9:29:6f:c9:29:2f:39:b8:fd:24:73:06:e7:
                    61:6b:19:58:e9:04:46:d4:11:c9:39:af:28:1f:ca:
                    86:69:dc:9c:5e:83:0f:07:6b:75:f6:ec:37:81:94:
                    ac:9a:0e:b3:6f:22:b9:f2:a5:26:d8:30:cc:18:5e:
                    f0:24:e1:d8:b8:54:1f:21:7a:29:53:ec:79:06:9a:
                    db:f8:21:d5:7d:82:ab:92:46:86:da:57:af:5b:d4:
                    f9:cb:e4:ac:00:bf:e3:0f:fb:98:25:30:d1:cb:9a:
                    03:8e:cb:6b:f9:7d:6c:5b:92:e0:c3:69:17:62:59:
                    36:aa:1d
                Exponent: 65537 (0x10001)
        X509v3 extensions:
            X509v3 Basic Constraints: 
                CA:FALSE
            X509v3 Key Usage: 
                Digital Signature, Non Repudiation, Key Encipherment
            X509v3 Extended Key Usage: 
                TLS Web Server Authentication, TLS Web Client Authentication
            X509v3 Subject Alternative Name: 
                DNS:localhost, DNS:vault_server, IP Address:127.0.0.1, IP Address:172.18.0.1
            X509v3 Subject Key Identifier: 
                C9:8F:B2:17:0C:7E:61:A7:C1:BF:69:62:DF:0E:9C:3E:4B:68:EC:6E
            X509v3 Authority Key Identifier: 
                BE:BA:8A:F1:FE:7B:F6:D5:32:4D:88:5F:A6:FF:AF:40:BE:5A:C9:8A
    Signature Algorithm: sha256WithRSAEncryption
    Signature Value:
        88:1e:a6:6b:fc:fa:70:48:bd:40:a9:5c:d2:dc:4f:46:97:6c:
        43:15:fe:9a:bf:16:35:99:e5:5e:eb:94:ec:0a:63:54:38:9a:
        75:40:da:d5:dc:5f:3c:93:f0:5b:df:10:98:62:37:21:36:9f:
        0c:94:43:a2:1d:9b:c0:b6:3d:aa:05:a8:c0:e3:da:48:fa:d1:
        e4:c9:67:80:e6:9a:77:73:75:64:ec:2d:23:29:42:98:41:f6:
        5f:8e:25:3f:7d:4f:5c:df:d2:96:1d:e4:3e:7d:16:fe:38:10:
        57:8a:86:97:cc:69:bc:aa:17:0b:ff:23:8d:eb:71:b3:cc:86:
        2c:a2:6b:c6:76:7f:e4:ad:b9:c2:79:e7:35:eb:ea:5b:39:bb:
        96:53:79:47:f2:35:46:fd:9a:c9:be:7a:25:5f:b1:f2:6a:90:
        7b:bc:af:8c:9c:6d:c5:cf:76:58:0b:c0:8e:0a:95:e4:d7:1f:
        0b:8c:1d:14:e1:f3:80:8d:56:5d:35:dd:49:85:83:15:e2:d3:
        ff:af:25:e9:68:97:b6:0c:c3:62:66:aa:aa:9c:91:bd:54:69:
        e7:79:b7:e4:d9:fa:87:67:27:72:7a:58:56:27:56:1b:bc:dc:
        e9:94:3d:7e:29:3e:b4:0c:a2:e8:fe:22:6b:fc:ae:df:28:83:
        54:ec:14:96:33:26:66:0e:c7:96:d7:31:69:ce:1b:e2:0d:11:
        3a:29:cc:ce:ca:c4:f2:70:83:56:33:ce:e9:06:b8:e4:1b:0b:
        bc:c2:3f:22:02:c3:01:42:5d:3b:97:d8:0c:a6:62:3d:10:61:
        2b:27:c9:02:10:b0:f1:76:fb:96:0b:85:0b:df:e3:99:73:41:
        3a:4d:5c:0d:03:82:8b:e8:6e:73:87:4e:5f:82:03:13:d1:80:
        3a:c3:d4:ff:fa:ce:59:b7:55:38:4c:ce:b1:b8:69:c2:b5:4d:
        98:4e:37:08:e4:fb:84:70:07:07:7b:4c:88:4c:e8:6f:76:13:
        2f:7e:d5:72:c4:27:10:0f:75:20:d0:56:c9:74:3e:f2:c6:d7:
        2b:d0:99:c1:6c:1f:64:11:5d:5b:97:f1:47:3e:fe:48:29:21:
        22:fa:31:fd:ef:02:95:5f:fa:6f:e9:eb:85:58:07:46:b1:89:
        e3:af:72:f9:1a:5f:1c:7c:a0:94:7a:74:7f:43:df:b4:9e:39:
        26:bd:be:16:fb:32:88:8a:3e:15:e6:bf:fb:79:b3:9a:1b:34:
        61:b9:f5:a9:b8:fe:54:db:31:c3:cd:1d:8f:37:14:ec:8c:7f:
        86:8f:73:2f:f6:4b:95:84:78:43:42:41:a3:df:16:ac:45:9b:
        38:de:d1:21:d3:ce:57:b1
-----BEGIN CERTIFICATE-----
MIIGQjCCBCqgAwIBAgIBATANBgkqhkiG9w0BAQsFADCBkzEmMCQGA1UEAwwdTXkg
Um9vdCBDZXJ0aWZpY2F0ZSBBdXRob3JpdHkxDDAKBgNVBAgMA05TVzELMAkGA1UE
BhMCQVUxIjAgBgkqhkiG9w0BCQEWE3N1cHBvcnRAZXhhbXBsZS5jb20xFDASBgNV
BAoMC0V4YW1wbGUgT3JnMRQwEgYDVQQLDAtEZXZlbG9wbWVudDAeFw0yNTAxMTAx
MzA0MDVaFw0zMDAxMDkxMzA0MDVaMIGHMRIwEAYDVQQDDAlsb2NhbGhvc3QxGDAW
BgNVBAgMD05ldyBTb3V0aCBXYWxlczELMAkGA1UEBhMCQVUxIDAeBgkqhkiG9w0B
CQEWEXN1cHBvcnRAY3JhenkuY29tMRIwEAYDVQQKDAlDcmF6eSBPcmcxFDASBgNV
BAsMC0RldmVsb3BtZW50MIICIjANBgkqhkiG9w0BAQEFAAOCAg8AMIICCgKCAgEA
xzEt62qyV/CJkj/PhB45o3P9Ah7XIrMsdhU8kCVJHNSeq1/7nkT93Z/ahKRF8XW2
XgVGs5MYlvg1/y9EqL9iZCi7m92RMwh74ryE+wb/bTmcPHxnMXIxB/JMI1V2LNTN
LjOQQlbg/A9VmYKJG9pLecetoIjwqUquNmAMUFOCxav7T2zMGsPAdYvCfGynkvg8
f9Qq6JoJnX95wdD/Npr1HrxLN5AcJ/3CMa2Z0PFPhGZLupBwIqvkL5eiYuPhSU+Z
Fd4wMFlGHV7w7hTwdwrNtSWGkHZ8UcqfyRo5KaSq6izm5ReDIJqSc4PEq+HK6tU6
arpXQVCj8+f9G04e9jPC/7mmMB+NY6BMp/u88XmzXXgGjAl5ZkmLfj9FE8rfVBUu
/xJwdHq2sKhQGAi9rfEryNQcRT1L1lrqBBCORI8AjvSguCxcWoS2CFzNWNhYol/U
7bQ+3viFNEIWLAyGDFzRALBHsSOIDlyZxZXLXw67RP91WE8mkOWlO2RM2K9VaxiB
evVK7uxf4bkpb8kpLzm4/SRzBudhaxlY6QRG1BHJOa8oH8qGadycXoMPB2t19uw3
gZSsmg6zbyK58qUm2DDMGF7wJOHYuFQfIXopU+x5Bprb+CHVfYKrkkaG2levW9T5
y+SsAL/jD/uYJTDRy5oDjstr+X1sW5Lgw2kXYlk2qh0CAwEAAaOBqjCBpzAJBgNV
HRMEAjAAMAsGA1UdDwQEAwIF4DAdBgNVHSUEFjAUBggrBgEFBQcDAQYIKwYBBQUH
AwIwLgYDVR0RBCcwJYIJbG9jYWxob3N0ggx2YXVsdF9zZXJ2ZXKHBH8AAAGHBKwS
AAEwHQYDVR0OBBYEFMmPshcMfmGnwb9pYt8OnD5LaOxuMB8GA1UdIwQYMBaAFL66
ivH+e/bVMk2IX6b/r0C+WsmKMA0GCSqGSIb3DQEBCwUAA4ICAQCIHqZr/PpwSL1A
qVzS3E9Gl2xDFf6avxY1meVe65TsCmNUOJp1QNrV3F88k/Bb3xCYYjchNp8MlEOi
HZvAtj2qBajA49pI+tHkyWeA5pp3c3Vk7C0jKUKYQfZfjiU/fU9c39KWHeQ+fRb+
OBBXioaXzGm8qhcL/yON63GzzIYsomvGdn/krbnCeec16+pbObuWU3lH8jVG/ZrJ
vnolX7HyapB7vK+MnG3Fz3ZYC8COCpXk1x8LjB0U4fOAjVZdNd1JhYMV4tP/ryXp
aJe2DMNiZqqqnJG9VGnnebfk2fqHZydyelhWJ1YbvNzplD1+KT60DKLo/iJr/K7f
KINU7BSWMyZmDseW1zFpzhviDRE6KczOysTycINWM87pBrjkGwu8wj8iAsMBQl07
l9gMpmI9EGErJ8kCELDxdvuWC4UL3+OZc0E6TVwNA4KL6G5zh05fggMT0YA6w9T/
+s5Zt1U4TM6xuGnCtU2YTjcI5PuEcAcHe0yITOhvdhMvftVyxCcQD3Ug0FbJdD7y
xtcr0JnBbB9kEV1bl/FHPv5IKSEi+jH97wKVX/pv6euFWAdGsYnjr3L5Gl8cfKCU
enR/Q9+0njkmvb4W+zKIij4V5r/7ebOaGzRhufWpuP5U2zHDzR2PNxTsjH+Gj3Mv
9kuVhHhDQkGj3xasRZs43tEh085XsQ==
-----END CERTIFICATE-----
