Certificate:
    Data:
        Version: 3 (0x2)
        Serial Number: 1 (0x1)
        Signature Algorithm: sha256WithRSAEncryption
        Issuer: CN=Intermediate Certificate Authority, C=AU/emailAddress=support@security.com, O=Security Organization, ST=New South Wales, OU=Certificate Authority
        Validity
            Not Before: Jan 14 17:25:36 2025 GMT
            Not After : Jan 14 17:25:36 2027 GMT
        Subject: CN=vault_server, C=AU/emailAddress=support@crazy.com, O=Crazy Org, ST=New South Wales, OU=Development
        Subject Public Key Info:
            Public Key Algorithm: rsaEncryption
                Public-Key: (4096 bit)
                Modulus:
                    00:bf:28:78:67:b2:88:d5:0b:29:07:71:87:d7:fc:
                    1c:0b:9b:c6:cc:a8:7c:14:a7:71:51:2a:0f:b5:3c:
                    33:40:bc:b3:0d:12:ea:e3:34:77:db:da:90:b4:bb:
                    83:d9:bf:2b:0c:a8:ac:b6:2b:15:08:23:86:bc:18:
                    7d:2a:8e:e2:52:46:a1:53:f7:85:08:56:81:c8:89:
                    2e:03:22:63:e2:b7:da:1d:9b:d2:af:fa:5b:84:cf:
                    d8:e0:9b:b2:f9:c1:6f:37:61:3b:ab:26:f0:59:90:
                    27:64:57:05:7c:99:4e:a7:f6:f1:7f:4d:ba:6e:ff:
                    4d:ae:7a:f7:ff:41:f9:51:76:ed:27:f3:f9:71:a3:
                    6f:c5:26:09:66:cc:fb:b6:37:8f:21:1c:ba:cd:89:
                    85:90:1f:fd:b4:59:dd:a0:7f:38:36:14:a3:8f:7e:
                    d6:04:bb:e2:68:93:47:6a:47:40:2d:93:89:80:f1:
                    09:9d:5c:89:cc:2d:6a:42:a2:b1:99:8f:03:20:1b:
                    de:62:ef:a3:9c:27:ed:c9:50:c6:cf:09:88:8e:a4:
                    eb:2b:84:a1:9e:06:49:06:91:21:a1:89:62:fb:4e:
                    74:ff:c1:a3:3b:fe:54:3b:d1:70:b1:cc:cf:b1:1d:
                    77:c9:ab:7c:8e:a1:1d:16:df:d9:16:25:a1:37:34:
                    ea:fa:ee:7c:34:77:7a:f3:6b:a7:38:bf:82:01:46:
                    62:d0:a9:0c:32:97:ed:93:c5:c9:c2:4f:95:13:03:
                    e4:d7:ba:8b:4c:e7:67:11:ab:89:cd:cb:ac:7d:f0:
                    5b:f2:e7:94:f8:83:0f:c8:a4:5f:90:07:51:8e:2f:
                    5f:bf:0e:c1:38:8b:7d:0a:e4:fe:7a:c7:41:07:31:
                    d5:b2:cd:eb:d3:5e:4f:19:47:5a:28:3b:6b:20:40:
                    ef:4e:a5:c9:80:fd:a4:e4:75:8c:2d:d2:9d:99:f2:
                    f1:21:3e:1c:f4:bc:45:cc:70:af:c0:18:39:ff:89:
                    c9:fe:58:43:f4:d9:75:49:23:11:9e:bf:1d:54:16:
                    aa:8d:9c:b3:1d:83:d5:e2:52:65:9c:15:cd:24:a3:
                    a0:20:5a:51:b9:ad:07:03:81:93:ec:b7:5b:dc:92:
                    37:64:9f:27:31:51:bb:f1:1a:b0:c7:bc:88:9c:61:
                    05:d8:ce:4e:b2:7c:1e:42:9d:0b:79:2e:12:45:20:
                    67:a7:10:f8:9c:d3:bd:fe:fa:6c:d8:39:d1:8a:17:
                    94:51:e6:5a:6f:d4:0c:ed:47:eb:7e:f8:6b:25:b9:
                    56:41:c5:89:91:7f:20:1e:38:78:a8:90:71:f0:ec:
                    a1:6e:9d:2c:34:2e:9d:83:c3:bd:4a:81:81:6e:7f:
                    e1:35:a3
                Exponent: 65537 (0x10001)
        X509v3 extensions:
            X509v3 Basic Constraints: 
                CA:FALSE
            X509v3 Key Usage: 
                Digital Signature, Key Encipherment
            X509v3 Extended Key Usage: 
                TLS Web Server Authentication, TLS Web Client Authentication
            X509v3 Subject Key Identifier: 
                40:19:19:0E:22:B4:FE:0B:DD:B4:EB:63:E9:D0:67:02:5A:DA:6F:DD
            X509v3 Authority Key Identifier: 
                5D:22:56:17:CF:3F:2E:6D:A6:D9:18:C3:AF:01:FD:94:B1:85:89:DE
            X509v3 Subject Alternative Name: 
                DNS:localhost, DNS:vault_server, IP Address:127.0.0.1
    Signature Algorithm: sha256WithRSAEncryption
    Signature Value:
        a2:bc:b1:a7:15:0f:32:f4:fd:91:49:fc:40:d2:a9:09:f2:73:
        0d:be:56:30:a5:db:81:77:a6:18:2c:6e:f7:fc:8e:8e:3d:ab:
        80:c1:e8:d8:87:5f:29:4c:81:c4:58:5c:2e:39:16:75:27:e9:
        08:46:58:b0:e3:97:f2:ef:3e:5d:6a:ca:80:92:1a:09:f2:0e:
        ee:a9:bb:95:c4:cf:6f:fd:af:e1:ed:5b:d3:d9:64:8e:9d:a2:
        f4:11:0f:36:d3:f7:b5:0d:8b:32:46:fa:18:6b:09:0c:aa:a1:
        c6:6a:93:f6:91:63:ad:08:a6:1e:1a:2d:65:97:17:41:30:72:
        32:19:a2:57:34:6e:52:7c:26:c3:62:59:30:c9:0a:9d:3b:2b:
        20:2d:4f:4d:85:62:d1:7d:32:b9:da:39:52:46:b7:93:f4:b1:
        a2:4e:71:29:2e:e4:46:76:a0:70:41:30:07:dc:9f:03:f6:17:
        52:72:f2:3f:66:5d:46:9a:c9:92:91:f6:24:4b:9c:78:6d:c9:
        a9:7e:0c:06:47:7a:8c:c6:8c:aa:62:71:1e:d7:69:16:57:57:
        e4:c4:b2:2b:30:6f:9a:49:dc:64:40:b0:2f:5d:71:ea:64:6f:
        7c:67:98:a0:6d:e7:c9:02:3a:be:7b:f5:f9:66:22:92:1a:00:
        09:60:ee:8f:23:d4:10:6c:3d:7d:37:ae:98:9b:23:9d:9e:e5:
        ac:f2:7a:30:57:f7:5b:bb:de:c5:94:4b:ad:e2:5a:cb:c6:d7:
        8f:77:cb:da:53:66:3e:83:11:c8:43:56:a4:e6:62:e7:af:b7:
        6a:72:48:0f:94:9e:e3:e9:76:fc:b8:9c:94:e1:bb:39:f1:68:
        f7:a7:d4:ad:bb:3d:bc:d1:b4:6a:9f:04:6b:9a:3e:ce:fd:c1:
        79:08:e5:7c:4b:ca:f3:bf:de:eb:99:0b:5e:7e:4e:7e:c4:05:
        3b:5f:6c:fc:0b:21:e1:ce:7e:f5:08:aa:16:9f:af:64:b0:e0:
        1f:4b:f7:ef:e4:18:b9:ec:4c:45:35:7c:4a:5b:85:b7:f7:ef:
        3a:92:7c:e1:23:57:aa:c7:31:86:54:eb:62:9f:83:b0:b3:33:
        a8:9a:9a:46:1a:c4:d7:c4:4d:58:d7:b4:f6:61:ad:64:3f:f7:
        7a:81:13:e8:bb:df:f9:35:0a:61:dd:98:fa:6a:f6:8a:e1:83:
        00:9d:9b:06:86:3c:e8:c9:f0:06:92:d2:0e:a8:d6:2c:27:39:
        24:de:6a:ba:bc:f2:35:b7:b8:c5:28:7a:85:51:cc:13:01:f3:
        1b:2e:0a:49:b5:c6:1e:ca:af:02:40:56:d6:50:df:74:4a:29:
        1b:de:e6:bf:55:4b:01:7c
-----BEGIN CERTIFICATE-----
MIIGZTCCBE2gAwIBAgIBATANBgkqhkiG9w0BAQsFADCBuTErMCkGA1UEAwwiSW50
ZXJtZWRpYXRlIENlcnRpZmljYXRlIEF1dGhvcml0eTELMAkGA1UEBhMCQVUxIzAh
BgkqhkiG9w0BCQEWFHN1cHBvcnRAc2VjdXJpdHkuY29tMR4wHAYDVQQKDBVTZWN1
cml0eSBPcmdhbml6YXRpb24xGDAWBgNVBAgMD05ldyBTb3V0aCBXYWxlczEeMBwG
A1UECwwVQ2VydGlmaWNhdGUgQXV0aG9yaXR5MB4XDTI1MDExNDE3MjUzNloXDTI3
MDExNDE3MjUzNlowgYoxFTATBgNVBAMMDHZhdWx0X3NlcnZlcjELMAkGA1UEBhMC
QVUxIDAeBgkqhkiG9w0BCQEWEXN1cHBvcnRAY3JhenkuY29tMRIwEAYDVQQKDAlD
cmF6eSBPcmcxGDAWBgNVBAgMD05ldyBTb3V0aCBXYWxlczEUMBIGA1UECwwLRGV2
ZWxvcG1lbnQwggIiMA0GCSqGSIb3DQEBAQUAA4ICDwAwggIKAoICAQC/KHhnsojV
CykHcYfX/BwLm8bMqHwUp3FRKg+1PDNAvLMNEurjNHfb2pC0u4PZvysMqKy2KxUI
I4a8GH0qjuJSRqFT94UIVoHIiS4DImPit9odm9Kv+luEz9jgm7L5wW83YTurJvBZ
kCdkVwV8mU6n9vF/Tbpu/02uevf/QflRdu0n8/lxo2/FJglmzPu2N48hHLrNiYWQ
H/20Wd2gfzg2FKOPftYEu+Jok0dqR0Atk4mA8QmdXInMLWpCorGZjwMgG95i76Oc
J+3JUMbPCYiOpOsrhKGeBkkGkSGhiWL7TnT/waM7/lQ70XCxzM+xHXfJq3yOoR0W
39kWJaE3NOr67nw0d3rza6c4v4IBRmLQqQwyl+2TxcnCT5UTA+TXuotM52cRq4nN
y6x98Fvy55T4gw/IpF+QB1GOL1+/DsE4i30K5P56x0EHMdWyzevTXk8ZR1ooO2sg
QO9OpcmA/aTkdYwt0p2Z8vEhPhz0vEXMcK/AGDn/icn+WEP02XVJIxGevx1UFqqN
nLMdg9XiUmWcFc0ko6AgWlG5rQcDgZPst1vckjdknycxUbvxGrDHvIicYQXYzk6y
fB5CnQt5LhJFIGenEPic073++mzYOdGKF5RR5lpv1AztR+t++GsluVZBxYmRfyAe
OHiokHHw7KFunSw0Lp2Dw71KgYFuf+E1owIDAQABo4GkMIGhMAkGA1UdEwQCMAAw
CwYDVR0PBAQDAgWgMB0GA1UdJQQWMBQGCCsGAQUFBwMBBggrBgEFBQcDAjAdBgNV
HQ4EFgQUQBkZDiK0/gvdtOtj6dBnAlrab90wHwYDVR0jBBgwFoAUXSJWF88/Lm2m
2RjDrwH9lLGFid4wKAYDVR0RBCEwH4IJbG9jYWxob3N0ggx2YXVsdF9zZXJ2ZXKH
BH8AAAEwDQYJKoZIhvcNAQELBQADggIBAKK8sacVDzL0/ZFJ/EDSqQnycw2+VjCl
24F3phgsbvf8jo49q4DB6NiHXylMgcRYXC45FnUn6QhGWLDjl/LvPl1qyoCSGgny
Du6pu5XEz2/9r+HtW9PZZI6dovQRDzbT97UNizJG+hhrCQyqocZqk/aRY60Iph4a
LWWXF0EwcjIZolc0blJ8JsNiWTDJCp07KyAtT02FYtF9MrnaOVJGt5P0saJOcSku
5EZ2oHBBMAfcnwP2F1Jy8j9mXUaayZKR9iRLnHhtyal+DAZHeozGjKpicR7XaRZX
V+TEsiswb5pJ3GRAsC9dcepkb3xnmKBt58kCOr579flmIpIaAAlg7o8j1BBsPX03
rpibI52e5azyejBX91u73sWUS63iWsvG1493y9pTZj6DEchDVqTmYuevt2pySA+U
nuPpdvy4nJThuznxaPen1K27PbzRtGqfBGuaPs79wXkI5XxLyvO/3uuZC15+Tn7E
BTtfbPwLIeHOfvUIqhafr2Sw4B9L9+/kGLnsTEU1fEpbhbf37zqSfOEjV6rHMYZU
62Kfg7CzM6iamkYaxNfETVjXtPZhrWQ/93qBE+i73/k1CmHdmPpq9orhgwCdmwaG
POjJ8AaS0g6o1iwnOSTearq88jW3uMUoeoVRzBMB8xsuCkm1xh7KrwJAVtZQ33RK
KRve5r9VSwF8
-----END CERTIFICATE-----
