Certificate:
    Data:
        Version: 3 (0x2)
        Serial Number: 1 (0x1)
        Signature Algorithm: sha256WithRSAEncryption
        Issuer: CN=My Root Certificate Authority, ST=NSW, C=AU/emailAddress=support@example.com, O=Example Org, OU=Development
        Validity
            Not Before: Jan 10 05:26:01 2025 GMT
            Not After : Jan  9 05:26:01 2030 GMT
        Subject: CN=localhost, ST=NSW, C=AU/emailAddress=support@example.com, O=Example Org, OU=Development
        Subject Public Key Info:
            Public Key Algorithm: rsaEncryption
                Public-Key: (2048 bit)
                Modulus:
                    00:b2:8c:f3:b8:7e:84:78:09:e0:12:54:ed:8c:e0:
                    f8:6f:99:e7:ad:55:c8:4f:69:04:6b:6f:89:70:3e:
                    bb:85:5a:ab:39:5e:65:3f:57:63:02:05:c7:36:13:
                    e3:ba:13:12:4b:c8:c7:47:1a:57:0e:7d:c7:95:10:
                    5b:d7:53:61:17:43:b0:fb:f7:ca:32:2d:56:0e:54:
                    38:1f:5b:09:91:f3:aa:7b:eb:02:64:ab:db:aa:0b:
                    9f:ea:72:01:91:cb:80:b4:2a:e5:7c:a8:b3:41:96:
                    43:5a:b3:8c:6a:59:40:b3:37:8f:94:7f:34:de:b0:
                    bb:53:fa:15:58:c7:8a:4d:89:51:fb:f1:8c:fd:c3:
                    7a:b7:d7:0d:ac:7c:8b:14:85:84:37:47:81:0a:d8:
                    6e:65:c6:5d:bc:da:a0:cc:e7:b7:e4:1e:31:29:2b:
                    dd:c7:34:df:09:40:bc:a0:76:3d:e8:c4:98:1a:bc:
                    1f:4e:ee:cf:30:0d:ea:e1:0b:54:72:42:93:79:8b:
                    b2:28:7d:b3:21:27:70:f1:32:3a:ea:81:e9:da:2b:
                    fe:12:6d:09:a1:73:0a:31:8a:1d:e6:87:7b:16:85:
                    ef:e2:cb:3c:90:03:2f:99:e1:57:d9:50:8a:0f:98:
                    9e:59:23:df:4b:ec:ec:4c:35:d8:55:73:ec:3a:17:
                    5d:05
                Exponent: 65537 (0x10001)
        X509v3 extensions:
            X509v3 Basic Constraints: 
                CA:FALSE
            X509v3 Key Usage: 
                Digital Signature, Non Repudiation, Key Encipherment
            X509v3 Subject Alternative Name: 
                DNS:localhost, DNS:vault_server, IP Address:127.0.0.1, IP Address:172.18.0.1
            X509v3 Subject Key Identifier: 
                11:03:2E:9D:F2:26:F2:EE:6F:45:41:2A:40:F3:82:3F:B8:60:57:21
            X509v3 Authority Key Identifier: 
                EE:81:0D:80:10:74:B0:F6:7E:61:F5:F2:1F:DF:C8:96:26:98:19:11
    Signature Algorithm: sha256WithRSAEncryption
    Signature Value:
        47:89:fa:8c:ae:c3:b6:b1:65:80:9f:e1:97:36:fe:84:94:01:
        ba:f7:0f:a0:b2:a8:90:a8:f1:1b:5e:e9:61:4e:c2:30:b4:96:
        ec:55:92:fd:b3:0e:d2:d4:cb:0f:29:e9:82:19:bb:1a:43:af:
        50:88:27:82:a7:94:45:08:e9:c7:c9:62:4a:49:31:5e:51:e8:
        a6:ef:d0:43:3a:e2:58:00:c5:72:b3:61:4a:ac:6b:94:e3:5f:
        eb:3a:8f:da:97:f1:07:03:72:f8:1a:51:c8:29:4e:e9:68:9c:
        bd:98:47:50:21:85:30:09:50:c6:83:e5:7e:dc:b6:b9:92:fe:
        ff:a9:db:f7:0b:e1:09:87:e3:00:72:ff:e6:5f:95:30:fe:11:
        b3:72:c7:7d:53:26:26:40:51:81:d2:43:b9:d9:9e:cd:3d:9a:
        b5:b1:a5:d1:96:6b:ae:ad:43:b4:b1:27:34:bf:fa:57:c6:d7:
        21:25:f3:22:e4:dd:2e:2f:8c:e6:d3:d0:41:26:c3:61:1a:53:
        b2:78:a2:58:b6:36:ca:13:3a:b4:64:e3:0b:7b:c2:5e:5b:d4:
        1b:b2:0c:8e:e9:c4:8e:92:bf:6d:34:e1:a7:0a:e9:c7:be:7b:
        bb:b9:72:0e:d1:6c:22:e7:3f:69:58:3f:d0:32:f3:c0:2a:68:
        4f:84:8b:ef
-----BEGIN CERTIFICATE-----
MIIEGjCCAwKgAwIBAgIBATANBgkqhkiG9w0BAQsFADCBkzEmMCQGA1UEAwwdTXkg
Um9vdCBDZXJ0aWZpY2F0ZSBBdXRob3JpdHkxDDAKBgNVBAgMA05TVzELMAkGA1UE
BhMCQVUxIjAgBgkqhkiG9w0BCQEWE3N1cHBvcnRAZXhhbXBsZS5jb20xFDASBgNV
BAoMC0V4YW1wbGUgT3JnMRQwEgYDVQQLDAtEZXZlbG9wbWVudDAeFw0yNTAxMTAw
NTI2MDFaFw0zMDAxMDkwNTI2MDFaMH8xEjAQBgNVBAMMCWxvY2FsaG9zdDEMMAoG
A1UECAwDTlNXMQswCQYDVQQGEwJBVTEiMCAGCSqGSIb3DQEJARYTc3VwcG9ydEBl
eGFtcGxlLmNvbTEUMBIGA1UECgwLRXhhbXBsZSBPcmcxFDASBgNVBAsMC0RldmVs
b3BtZW50MIIBIjANBgkqhkiG9w0BAQEFAAOCAQ8AMIIBCgKCAQEAsozzuH6EeAng
ElTtjOD4b5nnrVXIT2kEa2+JcD67hVqrOV5lP1djAgXHNhPjuhMSS8jHRxpXDn3H
lRBb11NhF0Ow+/fKMi1WDlQ4H1sJkfOqe+sCZKvbqguf6nIBkcuAtCrlfKizQZZD
WrOMallAszePlH803rC7U/oVWMeKTYlR+/GM/cN6t9cNrHyLFIWEN0eBCthuZcZd
vNqgzOe35B4xKSvdxzTfCUC8oHY96MSYGrwfTu7PMA3q4QtUckKTeYuyKH2zISdw
8TI66oHp2iv+Em0JoXMKMYod5od7FoXv4ss8kAMvmeFX2VCKD5ieWSPfS+zsTDXY
VXPsOhddBQIDAQABo4GLMIGIMAkGA1UdEwQCMAAwCwYDVR0PBAQDAgXgMC4GA1Ud
EQQnMCWCCWxvY2FsaG9zdIIMdmF1bHRfc2VydmVyhwR/AAABhwSsEgABMB0GA1Ud
DgQWBBQRAy6d8iby7m9FQSpA84I/uGBXITAfBgNVHSMEGDAWgBTugQ2AEHSw9n5h
9fIf38iWJpgZETANBgkqhkiG9w0BAQsFAAOCAQEAR4n6jK7DtrFlgJ/hlzb+hJQB
uvcPoLKokKjxG17pYU7CMLSW7FWS/bMO0tTLDynpghm7GkOvUIgngqeURQjpx8li
SkkxXlHopu/QQzriWADFcrNhSqxrlONf6zqP2pfxBwNy+BpRyClO6WicvZhHUCGF
MAlQxoPlfty2uZL+/6nb9wvhCYfjAHL/5l+VMP4Rs3LHfVMmJkBRgdJDudmezT2a
tbGl0ZZrrq1DtLEnNL/6V8bXISXzIuTdLi+M5tPQQSbDYRpTsniiWLY2yhM6tGTj
C3vCXlvUG7IMjunEjpK/bTThpwrpx757u7lyDtFsIuc/aVg/0DLzwCpoT4SL7w==
-----END CERTIFICATE-----
-----BEGIN CERTIFICATE-----
MIID5TCCAs2gAwIBAgIUVyASQzd1/ty4nGE56mcmGH3glT4wDQYJKoZIhvcNAQEL
BQAwgZMxJjAkBgNVBAMMHU15IFJvb3QgQ2VydGlmaWNhdGUgQXV0aG9yaXR5MQww
CgYDVQQIDANOU1cxCzAJBgNVBAYTAkFVMSIwIAYJKoZIhvcNAQkBFhNzdXBwb3J0
QGV4YW1wbGUuY29tMRQwEgYDVQQKDAtFeGFtcGxlIE9yZzEUMBIGA1UECwwLRGV2
ZWxvcG1lbnQwHhcNMjUwMTEwMDUyNTU5WhcNMzAwMTA5MDUyNTU5WjCBkzEmMCQG
A1UEAwwdTXkgUm9vdCBDZXJ0aWZpY2F0ZSBBdXRob3JpdHkxDDAKBgNVBAgMA05T
VzELMAkGA1UEBhMCQVUxIjAgBgkqhkiG9w0BCQEWE3N1cHBvcnRAZXhhbXBsZS5j
b20xFDASBgNVBAoMC0V4YW1wbGUgT3JnMRQwEgYDVQQLDAtEZXZlbG9wbWVudDCC
ASIwDQYJKoZIhvcNAQEBBQADggEPADCCAQoCggEBAOnsyljbWpXnCK5DAXoj71G/
nKYyNjmL/1ATbl+bhVkvFw52GZh+mjVeblYK7lhKVUkBWzVT2lD/ogGMcCvLNTau
hnA0xfVZjOyEQi/sTrj/7nnNA26rITBZOUP4YySzblhSjvPXtacnSt57br7NTOyi
mrtbz5EkJKqsmsHhFbtyBaZH6LNE591ZyX6iygI9s4kpwjinlna/0lMEp3NjEfaG
Rhopyjzk8GqF7rFe7A28GNuiifqN20lq1X6XD0X23k5n6cNk3jAGnO1NdEOblxw4
MKlQTBHyMk+N/asC1CYT1Qjl56+udm+twKPqyykIDGBKEwbue8UzjICnoNf6J1sC
AwEAAaMvMC0wDAYDVR0TBAUwAwEB/zAdBgNVHQ4EFgQU7oENgBB0sPZ+YfXyH9/I
liaYGREwDQYJKoZIhvcNAQELBQADggEBAKY1SlStyMhL2cdRcNyfCdroFXOxyNue
WQFa/U+KaAZEaEKhZsZyNwooaVlKaiHXcDICOywak3kiLf/3dK8AtWgi7JxQ3OFZ
yhXDbJyhqk6B3XMFSqKHjNPm6kTQdfaDUC5OW/8MIZpZhJI0mCm7IUQkOQc2ZkAE
3rsPGBaeKb0u80MKJiqjgeE8a/ypcsHp2l8SPNBM1WVUOlqn7IeQ+6YYSe/uTo3e
JY+TobpsFFN0LYUdu1/2N4Nkrni8QtzBKnRP0FVHde4rdG9MAcnqCgPOQfB+vaPA
CAu4KyWVFKN6G9AmNFsAhCRkIwXFocxyPWoHrpdC8QXLmia3sz/eMaM=
-----END CERTIFICATE-----
