Certificate:
    Data:
        Version: 3 (0x2)
        Serial Number: 1 (0x1)
        Signature Algorithm: sha256WithRSAEncryption
        Issuer: CN=Intermediate Certificate Authority, C=AU/emailAddress=support@security.com, O=Security Organization, ST=New South Wales, OU=Certificate Authority
        Validity
            Not Before: Jan 15 03:06:14 2025 GMT
            Not After : Jan 15 03:06:14 2027 GMT
        Subject: CN=vault_server, C=AU/emailAddress=support@crazy.com, O=Crazy Org, ST=New South Wales, OU=Development
        Subject Public Key Info:
            Public Key Algorithm: rsaEncryption
                Public-Key: (4096 bit)
                Modulus:
                    00:e9:b4:1a:e1:96:0b:4a:11:73:c8:05:b3:1b:cd:
                    98:85:81:9f:d5:8e:f5:47:c9:a7:3a:f8:7d:95:d6:
                    f9:50:e8:68:78:96:4a:86:bf:7e:1e:62:7f:0f:f9:
                    c0:e6:ac:f6:85:c6:06:aa:d8:53:88:84:9f:c4:8d:
                    42:4a:02:9f:91:bf:46:ac:43:ef:c3:c1:b9:d6:b7:
                    4f:de:9a:5e:d0:93:96:9b:6b:21:5c:c8:85:f6:dc:
                    b7:bb:34:d5:40:1c:fe:c0:12:cf:94:3a:3a:d6:36:
                    0e:ab:c7:e7:32:5d:e1:78:f5:1a:58:f4:26:d7:aa:
                    24:5d:77:c1:9f:3d:3a:57:13:42:4a:9c:fc:44:98:
                    e2:6c:f4:9c:10:60:ae:59:b6:0f:f8:56:04:e7:75:
                    45:87:c2:4d:4d:d0:59:f0:14:c6:b2:e8:56:1e:28:
                    c3:55:94:13:c6:72:9a:27:00:cf:ce:19:fd:d1:b5:
                    d0:ce:23:bd:93:bd:9a:d2:78:8a:8f:6a:91:bc:24:
                    a2:13:e6:1e:bc:a2:4c:25:ed:6c:27:30:fd:07:98:
                    a0:29:0a:da:51:2c:8a:67:87:95:b2:ef:d2:19:06:
                    bd:80:8c:23:93:7a:5e:88:4d:31:61:32:70:a6:d0:
                    0e:63:9a:00:b2:ce:89:ba:b0:43:1f:71:0b:d8:86:
                    eb:ad:d4:10:aa:fe:f9:97:0e:e6:7f:16:2b:91:f9:
                    db:0f:2a:28:c3:60:1e:b7:a4:9d:bd:c8:ef:36:28:
                    05:5b:a5:c7:bc:6e:dc:f1:55:d9:c3:8e:e9:69:73:
                    17:cf:79:e7:6f:5b:96:72:b1:3f:78:bf:67:16:05:
                    1c:f6:63:37:db:e7:aa:53:cd:4f:ee:17:b8:a4:a0:
                    1d:c2:8b:c0:82:e0:1c:84:9c:bc:34:cc:ab:53:59:
                    a7:e4:d6:f8:b4:17:ee:a4:f3:62:e2:53:5f:b5:22:
                    71:7e:47:42:e2:43:9e:b1:aa:9b:9e:0b:46:a2:07:
                    09:78:b4:67:46:f9:ff:5b:0a:a2:4e:8b:ed:43:13:
                    33:98:3c:b0:49:d4:6d:5a:49:28:74:24:2f:48:67:
                    12:2b:bb:ab:ef:72:f3:92:63:f9:bb:fa:e4:54:62:
                    17:da:53:6e:61:84:29:66:85:b7:ac:78:8c:8c:18:
                    d3:1c:4e:24:c0:bf:1a:6a:7c:e4:ed:87:3d:b8:16:
                    77:bc:44:6f:c8:f4:6f:76:fb:10:f8:5e:be:76:18:
                    39:1a:3d:9f:f2:e5:ae:3a:fb:9f:fc:07:47:cd:82:
                    43:71:49:e0:ae:3e:d5:9f:9c:b7:05:69:96:dd:bb:
                    c1:a7:42:a3:3f:2d:de:ff:2f:a7:06:87:e7:50:c5:
                    6f:f4:41
                Exponent: 65537 (0x10001)
        X509v3 extensions:
            X509v3 Basic Constraints: 
                CA:FALSE
            X509v3 Key Usage: 
                Digital Signature, Key Encipherment
            X509v3 Extended Key Usage: 
                TLS Web Server Authentication, TLS Web Client Authentication
            X509v3 Subject Key Identifier: 
                68:12:6F:99:EC:3D:08:DB:12:2A:50:7A:7C:AB:B9:4C:6C:69:68:08
            X509v3 Authority Key Identifier: 
                4F:E8:04:6A:02:21:43:21:29:E8:F2:38:80:DC:B9:45:A2:64:80:5F
            X509v3 Subject Alternative Name: 
                DNS:localhost, DNS:vault_server, IP Address:127.0.0.1
    Signature Algorithm: sha256WithRSAEncryption
    Signature Value:
        b0:b5:22:5f:19:ac:13:47:38:a5:a3:14:46:63:d0:27:46:9a:
        01:57:38:ff:47:8e:76:39:a9:25:0b:a6:47:86:7d:56:cc:c5:
        10:5a:81:a7:db:2d:ed:54:2d:ce:6a:da:13:96:2e:76:c1:48:
        6d:16:a7:5f:b5:e7:b2:1a:20:e6:fc:b7:bb:f9:cd:94:37:13:
        53:a1:8b:09:8f:2a:9d:d5:6a:99:c6:20:b5:2e:d7:97:0d:22:
        9f:2d:ed:5c:10:ec:28:fa:05:0c:49:8b:67:07:bf:a9:9e:55:
        5b:73:c2:4b:7a:d0:29:0b:74:91:9b:44:cb:ff:fc:f9:2d:90:
        87:23:b3:6f:ee:0f:9f:3f:17:f9:c5:b9:da:e6:a2:07:67:a0:
        22:27:e3:b2:6f:29:d8:d3:85:07:df:f0:ac:61:80:c4:a5:5b:
        bc:cb:85:55:6d:61:5b:11:c1:ca:84:5e:9a:de:34:1a:a2:f7:
        fa:d1:df:cc:65:a1:52:36:fe:49:cc:69:c1:4d:ca:3d:01:b6:
        53:67:22:f2:9f:f2:51:45:75:6b:f2:86:74:67:1e:63:56:8a:
        56:5f:57:31:2b:29:4c:d5:17:84:0d:76:a7:c7:e4:93:e3:61:
        50:a0:68:5a:61:d5:9c:a3:40:c0:e4:60:7a:92:73:2e:10:3b:
        20:79:21:ee:73:c1:d9:26:45:25:5a:89:e5:ff:3e:6b:08:c4:
        02:3c:5c:48:b1:0a:0b:3d:22:c1:4f:36:22:00:4a:60:7f:b1:
        86:9b:78:2f:c4:df:4e:79:bb:00:e8:94:68:51:0b:f5:88:6a:
        05:82:bc:4a:f2:88:fe:b1:0f:93:42:7f:00:ed:cb:3e:e8:62:
        bf:a8:01:c3:a6:b6:00:3f:e9:cf:fd:a9:e9:79:60:10:e8:a8:
        8d:13:59:16:98:3b:11:46:fb:9f:ee:d1:2c:39:25:52:30:e3:
        84:fd:42:8d:59:e0:a0:9b:bd:31:ec:e4:43:91:5e:dc:f4:5a:
        1d:68:e7:3e:4a:da:29:1b:37:71:f9:3b:a2:46:fa:79:1c:8c:
        45:c6:ec:b7:bc:6e:5e:ea:40:cb:24:aa:cf:3a:3e:65:5b:30:
        e1:2e:41:fb:90:61:4b:7b:56:65:21:a4:94:b4:d6:b9:66:a7:
        4b:9e:7b:bf:bd:44:e4:bd:a7:50:9e:55:49:72:9d:28:1e:93:
        5e:72:6a:a5:f4:40:4e:86:a9:46:8e:de:ad:91:93:86:dc:c1:
        7a:c7:97:eb:a4:bb:36:e7:08:fa:d0:a3:fc:cc:3c:ff:66:19:
        d7:d8:f7:69:02:34:1b:d4:5c:9b:54:72:b5:01:32:bc:18:ba:
        49:c1:fe:1a:ed:e3:ec:4c
-----BEGIN CERTIFICATE-----
MIIGZTCCBE2gAwIBAgIBATANBgkqhkiG9w0BAQsFADCBuTErMCkGA1UEAwwiSW50
ZXJtZWRpYXRlIENlcnRpZmljYXRlIEF1dGhvcml0eTELMAkGA1UEBhMCQVUxIzAh
BgkqhkiG9w0BCQEWFHN1cHBvcnRAc2VjdXJpdHkuY29tMR4wHAYDVQQKDBVTZWN1
cml0eSBPcmdhbml6YXRpb24xGDAWBgNVBAgMD05ldyBTb3V0aCBXYWxlczEeMBwG
A1UECwwVQ2VydGlmaWNhdGUgQXV0aG9yaXR5MB4XDTI1MDExNTAzMDYxNFoXDTI3
MDExNTAzMDYxNFowgYoxFTATBgNVBAMMDHZhdWx0X3NlcnZlcjELMAkGA1UEBhMC
QVUxIDAeBgkqhkiG9w0BCQEWEXN1cHBvcnRAY3JhenkuY29tMRIwEAYDVQQKDAlD
cmF6eSBPcmcxGDAWBgNVBAgMD05ldyBTb3V0aCBXYWxlczEUMBIGA1UECwwLRGV2
ZWxvcG1lbnQwggIiMA0GCSqGSIb3DQEBAQUAA4ICDwAwggIKAoICAQDptBrhlgtK
EXPIBbMbzZiFgZ/VjvVHyac6+H2V1vlQ6Gh4lkqGv34eYn8P+cDmrPaFxgaq2FOI
hJ/EjUJKAp+Rv0asQ+/DwbnWt0/eml7Qk5abayFcyIX23Le7NNVAHP7AEs+UOjrW
Ng6rx+cyXeF49RpY9CbXqiRdd8GfPTpXE0JKnPxEmOJs9JwQYK5Ztg/4VgTndUWH
wk1N0FnwFMay6FYeKMNVlBPGcponAM/OGf3RtdDOI72TvZrSeIqPapG8JKIT5h68
okwl7WwnMP0HmKApCtpRLIpnh5Wy79IZBr2AjCOTel6ITTFhMnCm0A5jmgCyzom6
sEMfcQvYhuut1BCq/vmXDuZ/FiuR+dsPKijDYB63pJ29yO82KAVbpce8btzxVdnD
julpcxfPeedvW5ZysT94v2cWBRz2Yzfb56pTzU/uF7ikoB3Ci8CC4ByEnLw0zKtT
Wafk1vi0F+6k82LiU1+1InF+R0LiQ56xqpueC0aiBwl4tGdG+f9bCqJOi+1DEzOY
PLBJ1G1aSSh0JC9IZxIru6vvcvOSY/m7+uRUYhfaU25hhClmhbeseIyMGNMcTiTA
vxpqfOTthz24Fne8RG/I9G92+xD4Xr52GDkaPZ/y5a46+5/8B0fNgkNxSeCuPtWf
nLcFaZbdu8GnQqM/Ld7/L6cGh+dQxW/0QQIDAQABo4GkMIGhMAkGA1UdEwQCMAAw
CwYDVR0PBAQDAgWgMB0GA1UdJQQWMBQGCCsGAQUFBwMBBggrBgEFBQcDAjAdBgNV
HQ4EFgQUaBJvmew9CNsSKlB6fKu5TGxpaAgwHwYDVR0jBBgwFoAUT+gEagIhQyEp
6PI4gNy5RaJkgF8wKAYDVR0RBCEwH4IJbG9jYWxob3N0ggx2YXVsdF9zZXJ2ZXKH
BH8AAAEwDQYJKoZIhvcNAQELBQADggIBALC1Il8ZrBNHOKWjFEZj0CdGmgFXOP9H
jnY5qSULpkeGfVbMxRBagafbLe1ULc5q2hOWLnbBSG0Wp1+157IaIOb8t7v5zZQ3
E1OhiwmPKp3VapnGILUu15cNIp8t7VwQ7Cj6BQxJi2cHv6meVVtzwkt60CkLdJGb
RMv//PktkIcjs2/uD58/F/nFudrmogdnoCIn47JvKdjThQff8KxhgMSlW7zLhVVt
YVsRwcqEXpreNBqi9/rR38xloVI2/knMacFNyj0BtlNnIvKf8lFFdWvyhnRnHmNW
ilZfVzErKUzVF4QNdqfH5JPjYVCgaFph1ZyjQMDkYHqScy4QOyB5Ie5zwdkmRSVa
ieX/PmsIxAI8XEixCgs9IsFPNiIASmB/sYabeC/E3055uwDolGhRC/WIagWCvEry
iP6xD5NCfwDtyz7oYr+oAcOmtgA/6c/9qel5YBDoqI0TWRaYOxFG+5/u0Sw5JVIw
44T9Qo1Z4KCbvTHs5EORXtz0Wh1o5z5K2ikbN3H5O6JG+nkcjEXG7Le8bl7qQMsk
qs86PmVbMOEuQfuQYUt7VmUhpJS01rlmp0uee7+9ROS9p1CeVUlynSgek15yaqX0
QE6GqUaO3q2Rk4bcwXrHl+ukuzbnCPrQo/zMPP9mGdfY92kCNBvUXJtUcrUBMrwY
uknB/hrt4+xM
-----END CERTIFICATE-----
