Certificate:
    Data:
        Version: 3 (0x2)
        Serial Number: 1 (0x1)
        Signature Algorithm: sha256WithRSAEncryption
        Issuer: CN=Root Certificate Authority, C=AU/emailAddress=support@security.com, ST=New South Wales, O=Security Organization, OU=Certificate Authority
        Validity
            Not Before: Jan 15 03:06:08 2025 GMT
            Not After : Jan 10 03:06:08 2045 GMT
        Subject: CN=Intermediate Certificate Authority, C=AU/emailAddress=support@security.com, O=Security Organization, ST=New South Wales, OU=Certificate Authority
        Subject Public Key Info:
            Public Key Algorithm: rsaEncryption
                Public-Key: (4096 bit)
                Modulus:
                    00:de:e8:2b:3c:a0:c1:42:3c:01:5c:68:d5:86:ba:
                    86:69:c8:98:8b:a1:91:85:00:72:10:67:f6:40:80:
                    0c:6f:68:ea:3c:03:2d:ca:b0:4d:0d:af:89:7d:b4:
                    86:f0:56:69:45:93:3a:4e:2c:51:f6:44:6d:51:62:
                    26:10:c2:dc:d6:e5:ab:e9:a3:8c:e5:1f:ea:01:7f:
                    be:1e:18:a3:11:f4:4e:5f:f2:1e:c0:af:6e:47:55:
                    24:fa:69:5c:03:79:27:23:d8:56:57:4f:5d:ef:fd:
                    81:45:a8:a1:7f:dc:5f:69:e2:6a:4e:d1:5c:1b:c8:
                    b3:a6:95:d5:55:ca:b8:44:2a:3d:24:05:fe:25:db:
                    81:5b:b8:69:d6:5d:d2:23:6c:cf:b3:3c:9c:2f:b5:
                    06:a2:af:54:9c:c8:f9:fc:21:0f:99:42:e4:cc:a5:
                    75:2b:d2:8d:43:51:4d:c2:59:0c:4a:f9:f7:a3:1d:
                    84:6a:26:be:d9:bb:13:11:ec:37:37:88:99:9e:d2:
                    f0:a7:a2:a9:34:1c:97:53:da:e2:76:f9:ec:05:2c:
                    39:7b:49:b8:8f:52:86:36:14:a3:2f:c4:ca:f0:98:
                    36:8a:4c:84:6f:a3:67:51:6e:d7:7d:50:b6:0d:97:
                    81:8c:8d:10:34:3b:ee:13:c2:06:71:8b:97:3e:61:
                    f4:29:b0:21:cd:98:55:e6:b7:32:c6:59:d4:37:2d:
                    a0:07:7f:86:fc:4f:f2:4b:f7:9c:c5:8c:62:6c:c7:
                    12:e2:b2:38:5c:ae:a5:d7:e5:c1:0f:50:a2:77:92:
                    b8:f2:79:00:bf:34:5e:c8:00:ad:1d:c2:2a:10:d5:
                    bb:12:fc:17:2e:c3:19:4c:20:46:db:a6:a5:60:7a:
                    e5:91:5f:ca:93:5a:c0:45:48:59:e4:ff:94:6b:bb:
                    87:ed:90:3b:4f:c1:43:88:da:0a:81:c4:66:03:8d:
                    7f:00:20:3e:da:6a:b4:de:b7:5d:11:0a:77:af:cb:
                    47:90:31:b1:e6:d2:44:28:8c:ec:b8:54:cf:d8:20:
                    0f:33:54:39:4f:12:12:1d:9d:ae:d9:6c:3b:bb:60:
                    e5:57:75:aa:90:e3:4b:8f:0f:07:5e:7b:15:e0:5b:
                    a0:fd:51:73:43:19:90:cf:9e:5b:83:e1:d1:2a:4b:
                    5a:5c:01:96:de:ad:38:03:72:ca:1c:37:b4:21:81:
                    ab:86:9c:b6:28:1e:4a:5f:0e:d7:a2:6d:bb:e0:a3:
                    0d:c9:5f:de:b1:f1:a0:6b:fe:b8:06:72:9c:31:42:
                    61:5c:54:24:4e:34:d2:20:33:01:3f:be:0e:2a:1e:
                    bc:37:d9:56:29:60:31:7c:f9:f6:fb:31:d6:f1:c3:
                    35:b8:d3
                Exponent: 65537 (0x10001)
        X509v3 extensions:
            X509v3 Basic Constraints: critical
                CA:TRUE, pathlen:1
            X509v3 Key Usage: critical
                Certificate Sign, CRL Sign
            Authority Information Access: 
                OCSP - URI:http://ocsp.security.com
            X509v3 CRL Distribution Points: 
                Full Name:
                  URI:http://crl.security.com/root-ca.crl
            X509v3 Subject Key Identifier: 
                4F:E8:04:6A:02:21:43:21:29:E8:F2:38:80:DC:B9:45:A2:64:80:5F
            X509v3 Authority Key Identifier: 
                6A:83:2C:4D:F1:3D:21:E4:53:65:87:3F:5E:73:62:ED:21:96:A6:CC
    Signature Algorithm: sha256WithRSAEncryption
    Signature Value:
        09:34:24:ae:8d:93:96:7a:7a:7b:54:ea:67:5d:b9:8d:dc:cd:
        d8:62:10:55:88:3b:5a:3c:d0:cd:0e:80:fd:75:db:1f:28:5f:
        85:65:cb:ef:d3:a5:f5:6a:2d:c3:6e:7b:39:34:d0:49:f0:ff:
        70:b7:4a:2a:a0:26:ac:f6:c9:2a:ce:ba:1c:6f:af:22:e5:ee:
        f3:48:ac:3e:c0:bb:de:dc:b5:fc:34:fe:1d:47:68:2e:eb:c9:
        1a:e8:73:13:38:dc:9f:c6:bf:90:19:be:ee:2d:a2:cc:14:e8:
        f9:cc:27:b5:b6:b2:fb:63:90:49:ff:ef:4d:81:74:ed:e4:15:
        fc:a2:93:a3:2b:cf:61:13:a1:37:42:24:1f:83:94:f8:40:9d:
        b2:4b:1b:e0:07:50:e7:e8:4f:5b:aa:5b:24:a1:73:a6:38:26:
        8f:c6:27:a4:10:6e:68:80:8d:70:a0:2f:0d:66:31:d9:af:2b:
        c3:70:ec:8e:95:ac:72:90:61:76:5e:b0:cc:f4:c5:0f:0f:e5:
        ba:c7:e4:cf:eb:d7:76:fe:b6:34:fd:b6:21:1e:50:89:b4:1c:
        6a:c4:d8:73:3c:ed:d4:d7:7f:bf:2d:15:4b:6b:4e:1d:b1:40:
        00:41:84:e4:9a:b3:93:b4:e9:73:10:c6:e7:ba:41:a0:f9:c4:
        21:de:df:f1:13:1f:f1:c4:2b:78:50:b8:46:fe:88:8f:25:c4:
        3b:d0:95:f8:9f:7b:4b:3c:d6:ef:6a:36:70:44:51:e1:a8:69:
        d7:8b:98:0d:49:1c:39:69:3f:5f:60:82:98:f3:ed:98:87:f9:
        85:a5:63:d7:eb:6b:23:56:65:34:15:e5:e5:47:95:e8:99:d3:
        2d:4b:79:b1:7b:c7:75:de:31:c7:06:1d:ae:54:95:ed:9c:bd:
        da:de:54:3e:1c:b8:2d:c1:cf:b5:6d:b5:45:c0:67:b8:7b:48:
        87:34:58:69:df:17:43:93:91:16:fe:72:77:8e:ea:47:40:7b:
        5f:84:cb:e9:41:ac:d8:30:d5:23:01:fd:8c:5a:c0:24:0f:18:
        9e:cf:63:1f:4a:2f:d2:2b:ab:89:71:5b:c8:ce:17:29:11:15:
        80:08:e3:6b:54:c7:4a:bf:6b:40:79:d9:4d:75:fd:09:de:d0:
        4d:32:7a:74:bc:c2:63:32:c9:74:7c:a0:f7:18:7d:d6:26:e5:
        1d:6a:56:96:01:3c:12:c0:37:ad:2d:fc:26:21:90:fb:97:11:
        4d:17:a4:1f:67:45:2a:02:bb:3c:2b:68:1e:a3:99:ac:af:dc:
        13:fd:0d:53:62:dd:53:bb:2a:67:9a:95:66:05:d1:e5:2f:d3:
        75:60:39:b7:e8:74:8d:0d
-----BEGIN CERTIFICATE-----
MIIGuzCCBKOgAwIBAgIBATANBgkqhkiG9w0BAQsFADCBsTEjMCEGA1UEAwwaUm9v
dCBDZXJ0aWZpY2F0ZSBBdXRob3JpdHkxCzAJBgNVBAYTAkFVMSMwIQYJKoZIhvcN
AQkBFhRzdXBwb3J0QHNlY3VyaXR5LmNvbTEYMBYGA1UECAwPTmV3IFNvdXRoIFdh
bGVzMR4wHAYDVQQKDBVTZWN1cml0eSBPcmdhbml6YXRpb24xHjAcBgNVBAsMFUNl
cnRpZmljYXRlIEF1dGhvcml0eTAeFw0yNTAxMTUwMzA2MDhaFw00NTAxMTAwMzA2
MDhaMIG5MSswKQYDVQQDDCJJbnRlcm1lZGlhdGUgQ2VydGlmaWNhdGUgQXV0aG9y
aXR5MQswCQYDVQQGEwJBVTEjMCEGCSqGSIb3DQEJARYUc3VwcG9ydEBzZWN1cml0
eS5jb20xHjAcBgNVBAoMFVNlY3VyaXR5IE9yZ2FuaXphdGlvbjEYMBYGA1UECAwP
TmV3IFNvdXRoIFdhbGVzMR4wHAYDVQQLDBVDZXJ0aWZpY2F0ZSBBdXRob3JpdHkw
ggIiMA0GCSqGSIb3DQEBAQUAA4ICDwAwggIKAoICAQDe6Cs8oMFCPAFcaNWGuoZp
yJiLoZGFAHIQZ/ZAgAxvaOo8Ay3KsE0Nr4l9tIbwVmlFkzpOLFH2RG1RYiYQwtzW
5avpo4zlH+oBf74eGKMR9E5f8h7Ar25HVST6aVwDeScj2FZXT13v/YFFqKF/3F9p
4mpO0VwbyLOmldVVyrhEKj0kBf4l24FbuGnWXdIjbM+zPJwvtQair1ScyPn8IQ+Z
QuTMpXUr0o1DUU3CWQxK+fejHYRqJr7ZuxMR7Dc3iJme0vCnoqk0HJdT2uJ2+ewF
LDl7SbiPUoY2FKMvxMrwmDaKTIRvo2dRbtd9ULYNl4GMjRA0O+4TwgZxi5c+YfQp
sCHNmFXmtzLGWdQ3LaAHf4b8T/JL95zFjGJsxxLisjhcrqXX5cEPUKJ3krjyeQC/
NF7IAK0dwioQ1bsS/BcuwxlMIEbbpqVgeuWRX8qTWsBFSFnk/5Rru4ftkDtPwUOI
2gqBxGYDjX8AID7aarTet10RCnevy0eQMbHm0kQojOy4VM/YIA8zVDlPEhIdna7Z
bDu7YOVXdaqQ40uPDwdeexXgW6D9UXNDGZDPnluD4dEqS1pcAZberTgDcsocN7Qh
gauGnLYoHkpfDteibbvgow3JX96x8aBr/rgGcpwxQmFcVCRONNIgMwE/vg4qHrw3
2VYpYDF8+fb7MdbxwzW40wIDAQABo4HTMIHQMBIGA1UdEwEB/wQIMAYBAf8CAQEw
DgYDVR0PAQH/BAQDAgEGMDQGCCsGAQUFBwEBBCgwJjAkBggrBgEFBQcwAYYYaHR0
cDovL29jc3Auc2VjdXJpdHkuY29tMDQGA1UdHwQtMCswKaAnoCWGI2h0dHA6Ly9j
cmwuc2VjdXJpdHkuY29tL3Jvb3QtY2EuY3JsMB0GA1UdDgQWBBRP6ARqAiFDISno
8jiA3LlFomSAXzAfBgNVHSMEGDAWgBRqgyxN8T0h5FNlhz9ec2LtIZamzDANBgkq
hkiG9w0BAQsFAAOCAgEACTQkro2Tlnp6e1TqZ125jdzN2GIQVYg7WjzQzQ6A/XXb
HyhfhWXL79Ol9Wotw257OTTQSfD/cLdKKqAmrPbJKs66HG+vIuXu80isPsC73ty1
/DT+HUdoLuvJGuhzEzjcn8a/kBm+7i2izBTo+cwntbay+2OQSf/vTYF07eQV/KKT
oyvPYROhN0IkH4OU+ECdsksb4AdQ5+hPW6pbJKFzpjgmj8YnpBBuaICNcKAvDWYx
2a8rw3DsjpWscpBhdl6wzPTFDw/lusfkz+vXdv62NP22IR5QibQcasTYczzt1Nd/
vy0VS2tOHbFAAEGE5Jqzk7TpcxDG57pBoPnEId7f8RMf8cQreFC4Rv6IjyXEO9CV
+J97SzzW72o2cERR4ahp14uYDUkcOWk/X2CCmPPtmIf5haVj1+trI1ZlNBXl5UeV
6JnTLUt5sXvHdd4xxwYdrlSV7Zy92t5UPhy4LcHPtW21RcBnuHtIhzRYad8XQ5OR
Fv5yd47qR0B7X4TL6UGs2DDVIwH9jFrAJA8Yns9jH0ov0iuriXFbyM4XKREVgAjj
a1THSr9rQHnZTXX9Cd7QTTJ6dLzCYzLJdHyg9xh91iblHWpWlgE8EsA3rS38JiGQ
+5cRTRekH2dFKgK7PCtoHqOZrK/cE/0NU2LdU7sqZ5qVZgXR5S/TdWA5t+h0jQ0=
-----END CERTIFICATE-----
